
boom.elf:     file format elf32-avr

Sections:
Idx Name          Size      VMA       LMA       File off  Algn
  0 .data         00000160  00800100  00001024  000010b8  2**0
                  CONTENTS, ALLOC, LOAD, DATA
  1 .text         00001024  00000000  00000000  00000094  2**1
                  CONTENTS, ALLOC, LOAD, READONLY, CODE
  2 .bss          00000068  00800260  00800260  00001218  2**0
                  ALLOC
  3 .stab         00000c78  00000000  00000000  00001218  2**2
                  CONTENTS, READONLY, DEBUGGING
  4 .stabstr      0000039a  00000000  00000000  00001e90  2**0
                  CONTENTS, READONLY, DEBUGGING
  5 .debug_aranges 00000080  00000000  00000000  0000222a  2**0
                  CONTENTS, READONLY, DEBUGGING
  6 .debug_pubnames 00000367  00000000  00000000  000022aa  2**0
                  CONTENTS, READONLY, DEBUGGING
  7 .debug_info   0000183a  00000000  00000000  00002611  2**0
                  CONTENTS, READONLY, DEBUGGING
  8 .debug_abbrev 0000076a  00000000  00000000  00003e4b  2**0
                  CONTENTS, READONLY, DEBUGGING
  9 .debug_line   0000130e  00000000  00000000  000045b5  2**0
                  CONTENTS, READONLY, DEBUGGING
 10 .debug_frame  00000290  00000000  00000000  000058c4  2**2
                  CONTENTS, READONLY, DEBUGGING
 11 .debug_str    00000411  00000000  00000000  00005b54  2**0
                  CONTENTS, READONLY, DEBUGGING
 12 .debug_loc    00000ad8  00000000  00000000  00005f65  2**0
                  CONTENTS, READONLY, DEBUGGING
 13 .debug_pubtypes 000000b9  00000000  00000000  00006a3d  2**0
                  CONTENTS, READONLY, DEBUGGING
 14 .debug_ranges 00000030  00000000  00000000  00006af6  2**0
                  CONTENTS, READONLY, DEBUGGING

Disassembly of section .text:

00000000 <__vectors>:
       0:	0c 94 46 00 	jmp	0x8c	; 0x8c <__ctors_end>
       4:	0c 94 63 00 	jmp	0xc6	; 0xc6 <__bad_interrupt>
       8:	0c 94 63 00 	jmp	0xc6	; 0xc6 <__bad_interrupt>
       c:	0c 94 63 00 	jmp	0xc6	; 0xc6 <__bad_interrupt>
      10:	0c 94 63 00 	jmp	0xc6	; 0xc6 <__bad_interrupt>
      14:	0c 94 63 00 	jmp	0xc6	; 0xc6 <__bad_interrupt>
      18:	0c 94 63 00 	jmp	0xc6	; 0xc6 <__bad_interrupt>
      1c:	0c 94 63 00 	jmp	0xc6	; 0xc6 <__bad_interrupt>
      20:	0c 94 63 00 	jmp	0xc6	; 0xc6 <__bad_interrupt>
      24:	0c 94 63 00 	jmp	0xc6	; 0xc6 <__bad_interrupt>
      28:	0c 94 63 00 	jmp	0xc6	; 0xc6 <__bad_interrupt>
      2c:	0c 94 63 00 	jmp	0xc6	; 0xc6 <__bad_interrupt>
      30:	0c 94 63 00 	jmp	0xc6	; 0xc6 <__bad_interrupt>
      34:	0c 94 63 00 	jmp	0xc6	; 0xc6 <__bad_interrupt>
      38:	0c 94 5a 03 	jmp	0x6b4	; 0x6b4 <__vector_14>
      3c:	0c 94 63 00 	jmp	0xc6	; 0xc6 <__bad_interrupt>
      40:	0c 94 a2 03 	jmp	0x744	; 0x744 <__vector_16>
      44:	0c 94 63 00 	jmp	0xc6	; 0xc6 <__bad_interrupt>
      48:	0c 94 63 00 	jmp	0xc6	; 0xc6 <__bad_interrupt>
      4c:	0c 94 63 00 	jmp	0xc6	; 0xc6 <__bad_interrupt>
      50:	0c 94 63 00 	jmp	0xc6	; 0xc6 <__bad_interrupt>
      54:	0c 94 63 00 	jmp	0xc6	; 0xc6 <__bad_interrupt>
      58:	0c 94 63 00 	jmp	0xc6	; 0xc6 <__bad_interrupt>
      5c:	0c 94 63 00 	jmp	0xc6	; 0xc6 <__bad_interrupt>
      60:	0c 94 63 00 	jmp	0xc6	; 0xc6 <__bad_interrupt>
      64:	0c 94 63 00 	jmp	0xc6	; 0xc6 <__bad_interrupt>
      68:	0c 94 63 00 	jmp	0xc6	; 0xc6 <__bad_interrupt>
      6c:	0c 94 63 00 	jmp	0xc6	; 0xc6 <__bad_interrupt>
      70:	0c 94 63 00 	jmp	0xc6	; 0xc6 <__bad_interrupt>
      74:	0c 94 63 00 	jmp	0xc6	; 0xc6 <__bad_interrupt>
      78:	0c 94 63 00 	jmp	0xc6	; 0xc6 <__bad_interrupt>
      7c:	0c 94 63 00 	jmp	0xc6	; 0xc6 <__bad_interrupt>
      80:	0c 94 63 00 	jmp	0xc6	; 0xc6 <__bad_interrupt>
      84:	0c 94 63 00 	jmp	0xc6	; 0xc6 <__bad_interrupt>
      88:	0c 94 63 00 	jmp	0xc6	; 0xc6 <__bad_interrupt>

0000008c <__ctors_end>:
      8c:	11 24       	eor	r1, r1
      8e:	1f be       	out	0x3f, r1	; 63
      90:	cf ef       	ldi	r28, 0xFF	; 255
      92:	d0 e1       	ldi	r29, 0x10	; 16
      94:	de bf       	out	0x3e, r29	; 62
      96:	cd bf       	out	0x3d, r28	; 61

00000098 <__do_copy_data>:
      98:	12 e0       	ldi	r17, 0x02	; 2
      9a:	a0 e0       	ldi	r26, 0x00	; 0
      9c:	b1 e0       	ldi	r27, 0x01	; 1
      9e:	e4 e2       	ldi	r30, 0x24	; 36
      a0:	f0 e1       	ldi	r31, 0x10	; 16
      a2:	02 c0       	rjmp	.+4      	; 0xa8 <__do_copy_data+0x10>
      a4:	05 90       	lpm	r0, Z+
      a6:	0d 92       	st	X+, r0
      a8:	a0 36       	cpi	r26, 0x60	; 96
      aa:	b1 07       	cpc	r27, r17
      ac:	d9 f7       	brne	.-10     	; 0xa4 <__do_copy_data+0xc>

000000ae <__do_clear_bss>:
      ae:	12 e0       	ldi	r17, 0x02	; 2
      b0:	a0 e6       	ldi	r26, 0x60	; 96
      b2:	b2 e0       	ldi	r27, 0x02	; 2
      b4:	01 c0       	rjmp	.+2      	; 0xb8 <.do_clear_bss_start>

000000b6 <.do_clear_bss_loop>:
      b6:	1d 92       	st	X+, r1

000000b8 <.do_clear_bss_start>:
      b8:	a8 3c       	cpi	r26, 0xC8	; 200
      ba:	b1 07       	cpc	r27, r17
      bc:	e1 f7       	brne	.-8      	; 0xb6 <.do_clear_bss_loop>
      be:	0e 94 be 04 	call	0x97c	; 0x97c <main>
      c2:	0c 94 10 08 	jmp	0x1020	; 0x1020 <_exit>

000000c6 <__bad_interrupt>:
      c6:	0c 94 00 00 	jmp	0	; 0x0 <__vectors>

000000ca <StrCmp>:
	for (char i = 0; i < len; i++){
		if (origin[i] != copy[i]){
			return 1;
		}
	}
	return 0;
      ca:	26 2f       	mov	r18, r22
      cc:	37 2f       	mov	r19, r23
      ce:	d9 01       	movw	r26, r18
//----------------------------------------------------------------

char StrCmp(char * origin, char * copy, char len)
{

	for (char i = 0; i < len; i++){
      d0:	e8 2f       	mov	r30, r24
      d2:	f9 2f       	mov	r31, r25
      d4:	04 c0       	rjmp	.+8      	; 0xde <StrCmp+0x14>
		if (origin[i] != copy[i]){
      d6:	21 91       	ld	r18, Z+
      d8:	9d 91       	ld	r25, X+
      da:	29 17       	cp	r18, r25
      dc:	31 f4       	brne	.+12     	; 0xea <StrCmp+0x20>
//----------------------------------------------------------------

char StrCmp(char * origin, char * copy, char len)
{

	for (char i = 0; i < len; i++){
      de:	9e 2f       	mov	r25, r30
      e0:	98 1b       	sub	r25, r24
      e2:	94 17       	cp	r25, r20
      e4:	c0 f3       	brcs	.-16     	; 0xd6 <StrCmp+0xc>
		if (origin[i] != copy[i]){
			return 1;
		}
	}
	return 0;
      e6:	80 e0       	ldi	r24, 0x00	; 0
      e8:	08 95       	ret
char StrCmp(char * origin, char * copy, char len)
{

	for (char i = 0; i < len; i++){
		if (origin[i] != copy[i]){
			return 1;
      ea:	81 e0       	ldi	r24, 0x01	; 1
		}
	}
	return 0;
}
      ec:	08 95       	ret

000000ee <StrCp>:
//-------------------------------------------------------------------

void StrCp(char * origin, char * copy, char len)
{

	for (char i = 0; i < len; i++){
      ee:	28 2f       	mov	r18, r24
      f0:	39 2f       	mov	r19, r25
      f2:	d9 01       	movw	r26, r18
      f4:	86 2f       	mov	r24, r22
      f6:	97 2f       	mov	r25, r23
      f8:	fc 01       	movw	r30, r24
      fa:	80 e0       	ldi	r24, 0x00	; 0
      fc:	03 c0       	rjmp	.+6      	; 0x104 <StrCp+0x16>
		copy[i] = origin[i];
      fe:	9d 91       	ld	r25, X+
     100:	91 93       	st	Z+, r25
//-------------------------------------------------------------------

void StrCp(char * origin, char * copy, char len)
{

	for (char i = 0; i < len; i++){
     102:	8f 5f       	subi	r24, 0xFF	; 255
     104:	84 17       	cp	r24, r20
     106:	d8 f3       	brcs	.-10     	; 0xfe <StrCp+0x10>
		copy[i] = origin[i];
	}	
}
     108:	08 95       	ret

0000010a <clear_key>:
//-------------------------------------------------------------------

void clear_key()
{
	for (char i = 0; i < KEYIDLEN; i++){
		readedkeyid[i] = 255;
     10a:	8f ef       	ldi	r24, 0xFF	; 255
     10c:	80 93 49 02 	sts	0x0249, r24
     110:	80 93 4a 02 	sts	0x024A, r24
     114:	80 93 4b 02 	sts	0x024B, r24
     118:	80 93 4c 02 	sts	0x024C, r24
     11c:	80 93 4d 02 	sts	0x024D, r24
     120:	80 93 4e 02 	sts	0x024E, r24
     124:	80 93 4f 02 	sts	0x024F, r24
     128:	80 93 50 02 	sts	0x0250, r24
	}
}
     12c:	08 95       	ret

0000012e <GetButton>:

//---------------------------------------------------------------

char GetButton()
{
     12e:	1f 93       	push	r17
	static unsigned char lastkey = 0;

	unsigned char curkey = GetKey();
     130:	0e 94 4a 07 	call	0xe94	; 0xe94 <GetKey>
     134:	18 2f       	mov	r17, r24
	//curkey = 1;

		LCDSendCommand(DD_RAM_ADDR2);
     136:	80 ec       	ldi	r24, 0xC0	; 192
     138:	0e 94 19 05 	call	0xa32	; 0xa32 <LCDSendCommand>
		LCDSendUnsafeCounteredTxt((curkey + 48), 1);
     13c:	81 2f       	mov	r24, r17
     13e:	90 e0       	ldi	r25, 0x00	; 0
     140:	c0 96       	adiw	r24, 0x30	; 48
     142:	61 e0       	ldi	r22, 0x01	; 1
     144:	0e 94 a4 05 	call	0xb48	; 0xb48 <LCDSendUnsafeCounteredTxt>
		//LCDSendTxt("ASDFG");

	return 0;
}
     148:	80 e0       	ldi	r24, 0x00	; 0
     14a:	1f 91       	pop	r17
     14c:	08 95       	ret

0000014e <GetSevenCode>:

//---------------------------------------------------------------

char GetSevenCode (char val, char need_point)
{
     14e:	8a 30       	cpi	r24, 0x0A	; 10
     150:	30 f4       	brcc	.+12     	; 0x15e <GetSevenCode+0x10>
     152:	e8 2f       	mov	r30, r24
     154:	f0 e0       	ldi	r31, 0x00	; 0
     156:	eb 5a       	subi	r30, 0xAB	; 171
     158:	fd 4f       	sbci	r31, 0xFD	; 253
     15a:	80 81       	ld	r24, Z
     15c:	01 c0       	rjmp	.+2      	; 0x160 <GetSevenCode+0x12>
     15e:	80 e0       	ldi	r24, 0x00	; 0
		default:
			res = 0b00000000;
			break;
	}

	if (need_point)
     160:	61 11       	cpse	r22, r1
		res |= 0b10000000;
     162:	80 68       	ori	r24, 0x80	; 128

	return res;
	
}
     164:	08 95       	ret

00000166 <PrintToSevenSeg>:



char PrintToSevenSeg(long value)
{
     166:	2f 92       	push	r2
     168:	3f 92       	push	r3
     16a:	4f 92       	push	r4
     16c:	5f 92       	push	r5
     16e:	6f 92       	push	r6
     170:	7f 92       	push	r7
     172:	8f 92       	push	r8
     174:	9f 92       	push	r9
     176:	af 92       	push	r10
     178:	bf 92       	push	r11
     17a:	cf 92       	push	r12
     17c:	df 92       	push	r13
     17e:	ef 92       	push	r14
     180:	ff 92       	push	r15
     182:	0f 93       	push	r16
     184:	1f 93       	push	r17
     186:	cf 93       	push	r28
     188:	df 93       	push	r29
     18a:	7b 01       	movw	r14, r22
     18c:	8c 01       	movw	r16, r24

	static long last_val = 0;


	if (last_val != value){
     18e:	80 91 6c 02 	lds	r24, 0x026C
     192:	90 91 6d 02 	lds	r25, 0x026D
     196:	a0 91 6e 02 	lds	r26, 0x026E
     19a:	b0 91 6f 02 	lds	r27, 0x026F
     19e:	8e 15       	cp	r24, r14
     1a0:	9f 05       	cpc	r25, r15
     1a2:	a0 07       	cpc	r26, r16
     1a4:	b1 07       	cpc	r27, r17
     1a6:	09 f4       	brne	.+2      	; 0x1aa <PrintToSevenSeg+0x44>
     1a8:	54 c0       	rjmp	.+168    	; 0x252 <PrintToSevenSeg+0xec>
		time[0] = ((value / 3600) / 10); // hours
     1aa:	c8 01       	movw	r24, r16
     1ac:	b7 01       	movw	r22, r14
     1ae:	20 ea       	ldi	r18, 0xA0	; 160
     1b0:	3c e8       	ldi	r19, 0x8C	; 140
     1b2:	40 e0       	ldi	r20, 0x00	; 0
     1b4:	50 e0       	ldi	r21, 0x00	; 0
     1b6:	0e 94 5f 07 	call	0xebe	; 0xebe <__divmodsi4>
     1ba:	20 93 80 02 	sts	0x0280, r18
		time[1] = ((value / 3600) % 10); // hours
     1be:	c8 01       	movw	r24, r16
     1c0:	b7 01       	movw	r22, r14
     1c2:	20 e1       	ldi	r18, 0x10	; 16
     1c4:	3e e0       	ldi	r19, 0x0E	; 14
     1c6:	40 e0       	ldi	r20, 0x00	; 0
     1c8:	50 e0       	ldi	r21, 0x00	; 0
     1ca:	0e 94 5f 07 	call	0xebe	; 0xebe <__divmodsi4>
     1ce:	3b 01       	movw	r6, r22
     1d0:	4c 01       	movw	r8, r24
     1d2:	6a e0       	ldi	r22, 0x0A	; 10
     1d4:	a6 2e       	mov	r10, r22
     1d6:	b1 2c       	mov	r11, r1
     1d8:	c1 2c       	mov	r12, r1
     1da:	d1 2c       	mov	r13, r1
     1dc:	ca 01       	movw	r24, r20
     1de:	b9 01       	movw	r22, r18
     1e0:	a6 01       	movw	r20, r12
     1e2:	95 01       	movw	r18, r10
     1e4:	0e 94 5f 07 	call	0xebe	; 0xebe <__divmodsi4>
     1e8:	60 93 81 02 	sts	0x0281, r22
		time[2] = ((value % 3600) / 60) / 10; // minutes
     1ec:	c4 01       	movw	r24, r8
     1ee:	b3 01       	movw	r22, r6
     1f0:	28 e5       	ldi	r18, 0x58	; 88
     1f2:	32 e0       	ldi	r19, 0x02	; 2
     1f4:	40 e0       	ldi	r20, 0x00	; 0
     1f6:	50 e0       	ldi	r21, 0x00	; 0
     1f8:	0e 94 5f 07 	call	0xebe	; 0xebe <__divmodsi4>
     1fc:	20 93 82 02 	sts	0x0282, r18
		time[3] = ((value % 3600) / 60) % 10; // minutes
     200:	9c e3       	ldi	r25, 0x3C	; 60
     202:	29 2e       	mov	r2, r25
     204:	31 2c       	mov	r3, r1
     206:	41 2c       	mov	r4, r1
     208:	51 2c       	mov	r5, r1
     20a:	c4 01       	movw	r24, r8
     20c:	b3 01       	movw	r22, r6
     20e:	a2 01       	movw	r20, r4
     210:	91 01       	movw	r18, r2
     212:	0e 94 5f 07 	call	0xebe	; 0xebe <__divmodsi4>
     216:	ca 01       	movw	r24, r20
     218:	b9 01       	movw	r22, r18
     21a:	a6 01       	movw	r20, r12
     21c:	95 01       	movw	r18, r10
     21e:	0e 94 5f 07 	call	0xebe	; 0xebe <__divmodsi4>
     222:	60 93 83 02 	sts	0x0283, r22
		time[4] = (value % 60) / 10; // seconds
     226:	c8 01       	movw	r24, r16
     228:	b7 01       	movw	r22, r14
     22a:	a2 01       	movw	r20, r4
     22c:	91 01       	movw	r18, r2
     22e:	0e 94 5f 07 	call	0xebe	; 0xebe <__divmodsi4>
     232:	a6 01       	movw	r20, r12
     234:	95 01       	movw	r18, r10
     236:	0e 94 5f 07 	call	0xebe	; 0xebe <__divmodsi4>
     23a:	20 93 84 02 	sts	0x0284, r18
		time[5] = (value % 60) % 10; // seconds
     23e:	60 93 85 02 	sts	0x0285, r22
		last_val = value;
     242:	e0 92 6c 02 	sts	0x026C, r14
     246:	f0 92 6d 02 	sts	0x026D, r15
     24a:	00 93 6e 02 	sts	0x026E, r16
     24e:	10 93 6f 02 	sts	0x026F, r17
     252:	00 e8       	ldi	r16, 0x80	; 128
     254:	12 e0       	ldi	r17, 0x02	; 2
}



char PrintToSevenSeg(long value)
{
     256:	c0 e0       	ldi	r28, 0x00	; 0
     258:	d0 e0       	ldi	r29, 0x00	; 0
		time[5] = (value % 60) % 10; // seconds
		last_val = value;
	}

	for (char i = 0; i < 7; i++){
		PORTA = (1 << i);
     25a:	81 e0       	ldi	r24, 0x01	; 1
     25c:	e8 2e       	mov	r14, r24
     25e:	f1 2c       	mov	r15, r1
     260:	c7 01       	movw	r24, r14
     262:	0c 2e       	mov	r0, r28
     264:	02 c0       	rjmp	.+4      	; 0x26a <PrintToSevenSeg+0x104>
     266:	88 0f       	add	r24, r24
     268:	99 1f       	adc	r25, r25
     26a:	0a 94       	dec	r0
     26c:	e2 f7       	brpl	.-8      	; 0x266 <PrintToSevenSeg+0x100>
     26e:	8b bb       	out	0x1b, r24	; 27
		PORTE = GetSevenCode(time[i], i%2);
     270:	ce 01       	movw	r24, r28
     272:	81 70       	andi	r24, 0x01	; 1
     274:	68 2f       	mov	r22, r24
     276:	f8 01       	movw	r30, r16
     278:	81 91       	ld	r24, Z+
     27a:	8f 01       	movw	r16, r30
     27c:	0e 94 a7 00 	call	0x14e	; 0x14e <GetSevenCode>
     280:	83 b9       	out	0x03, r24	; 3
	#else
		//round up by default
		__ticks_dc = (uint32_t)(ceil(fabs(__tmp)));
	#endif

	__builtin_avr_delay_cycles(__ticks_dc);
     282:	f9 ee       	ldi	r31, 0xE9	; 233
     284:	fa 95       	dec	r31
     286:	f1 f7       	brne	.-4      	; 0x284 <PrintToSevenSeg+0x11e>
     288:	00 00       	nop
     28a:	21 96       	adiw	r28, 0x01	; 1
		time[4] = (value % 60) / 10; // seconds
		time[5] = (value % 60) % 10; // seconds
		last_val = value;
	}

	for (char i = 0; i < 7; i++){
     28c:	c7 30       	cpi	r28, 0x07	; 7
     28e:	d1 05       	cpc	r29, r1
     290:	39 f7       	brne	.-50     	; 0x260 <PrintToSevenSeg+0xfa>

	}

	
	return 0;
}
     292:	80 e0       	ldi	r24, 0x00	; 0
     294:	df 91       	pop	r29
     296:	cf 91       	pop	r28
     298:	1f 91       	pop	r17
     29a:	0f 91       	pop	r16
     29c:	ff 90       	pop	r15
     29e:	ef 90       	pop	r14
     2a0:	df 90       	pop	r13
     2a2:	cf 90       	pop	r12
     2a4:	bf 90       	pop	r11
     2a6:	af 90       	pop	r10
     2a8:	9f 90       	pop	r9
     2aa:	8f 90       	pop	r8
     2ac:	7f 90       	pop	r7
     2ae:	6f 90       	pop	r6
     2b0:	5f 90       	pop	r5
     2b2:	4f 90       	pop	r4
     2b4:	3f 90       	pop	r3
     2b6:	2f 90       	pop	r2
     2b8:	08 95       	ret

000002ba <GameOver>:

//---------------------------------------------------------------

void GameOver()
{
	is_game = 0;
     2ba:	10 92 61 02 	sts	0x0261, r1
	is_timer = 0;
     2be:	10 92 62 02 	sts	0x0262, r1
	LCDSendCommand(CLR_DISP); 
     2c2:	81 e0       	ldi	r24, 0x01	; 1
     2c4:	0e 94 19 05 	call	0xa32	; 0xa32 <LCDSendCommand>
	LCDSendUnsafeCounteredTxt(GAMEOVER, TEXTLEN);
     2c8:	80 e0       	ldi	r24, 0x00	; 0
     2ca:	91 e0       	ldi	r25, 0x01	; 1
     2cc:	60 e1       	ldi	r22, 0x10	; 16
     2ce:	0e 94 a4 05 	call	0xb48	; 0xb48 <LCDSendUnsafeCounteredTxt>

	// reinit timer

	timer_cur = timer_init_val;
     2d2:	80 91 51 02 	lds	r24, 0x0251
     2d6:	90 91 52 02 	lds	r25, 0x0252
     2da:	a0 91 53 02 	lds	r26, 0x0253
     2de:	b0 91 54 02 	lds	r27, 0x0254
     2e2:	80 93 65 02 	sts	0x0265, r24
     2e6:	90 93 66 02 	sts	0x0266, r25
     2ea:	a0 93 67 02 	sts	0x0267, r26
     2ee:	b0 93 68 02 	sts	0x0268, r27

	UPBIT(PORTA,6);	
     2f2:	de 9a       	sbi	0x1b, 6	; 27
}
     2f4:	08 95       	ret

000002f6 <GamePaused>:

//---------------------------------------------------------------

void GamePaused()
{
	is_timer = 0;
     2f6:	10 92 62 02 	sts	0x0262, r1

	UPBIT(PORTA,6);
     2fa:	de 9a       	sbi	0x1b, 6	; 27
}
     2fc:	08 95       	ret

000002fe <MakeBoom>:

//---------------------------------------------------------------

void MakeBoom()
{
     2fe:	cf 93       	push	r28
     300:	df 93       	push	r29
	is_timer = 0;
     302:	10 92 62 02 	sts	0x0262, r1
	is_game = 0;
     306:	10 92 61 02 	sts	0x0261, r1

	timer_cur = timer_init_val;
     30a:	80 91 51 02 	lds	r24, 0x0251
     30e:	90 91 52 02 	lds	r25, 0x0252
     312:	a0 91 53 02 	lds	r26, 0x0253
     316:	b0 91 54 02 	lds	r27, 0x0254
     31a:	80 93 65 02 	sts	0x0265, r24
     31e:	90 93 66 02 	sts	0x0266, r25
     322:	a0 93 67 02 	sts	0x0267, r26
     326:	b0 93 68 02 	sts	0x0268, r27

	LCDSendCommand(CLR_DISP);
     32a:	81 e0       	ldi	r24, 0x01	; 1
     32c:	0e 94 19 05 	call	0xa32	; 0xa32 <LCDSendCommand>
	LCDSendTxt(" BOOM BOOM BOOM "); 
     330:	c1 e1       	ldi	r28, 0x11	; 17
     332:	d1 e0       	ldi	r29, 0x01	; 1
     334:	ce 01       	movw	r24, r28
     336:	0e 94 73 05 	call	0xae6	; 0xae6 <LCDSendTxt>
	LCDSendCommand(DD_RAM_ADDR2);
     33a:	80 ec       	ldi	r24, 0xC0	; 192
     33c:	0e 94 19 05 	call	0xa32	; 0xa32 <LCDSendCommand>
	LCDSendTxt(" BOOM BOOM BOOM ");
     340:	ce 01       	movw	r24, r28
     342:	0e 94 73 05 	call	0xae6	; 0xae6 <LCDSendTxt>

	UPBIT(PORTA,6);	
     346:	de 9a       	sbi	0x1b, 6	; 27
	
}
     348:	df 91       	pop	r29
     34a:	cf 91       	pop	r28
     34c:	08 95       	ret

0000034e <CheckKey>:

//---------------------------------------------------------------

char CheckKey ()
{
	if (!reset_ds1990(readedkeyid, KEYIDLEN))
     34e:	89 e4       	ldi	r24, 0x49	; 73
     350:	92 e0       	ldi	r25, 0x02	; 2
     352:	68 e0       	ldi	r22, 0x08	; 8
     354:	0e 94 0e 07 	call	0xe1c	; 0xe1c <reset_ds1990>
     358:	88 23       	and	r24, r24
     35a:	69 f0       	breq	.+26     	; 0x376 <CheckKey+0x28>
		return 0;
//	return !StrCmp(readedkeyid, keyid, KEYIDLEN);

	if ( StrCmp(readedkeyid, keyid, KEYIDLEN) ){ // считываются разные ключи
     35c:	89 e4       	ldi	r24, 0x49	; 73
     35e:	92 e0       	ldi	r25, 0x02	; 2
     360:	61 e4       	ldi	r22, 0x41	; 65
     362:	72 e0       	ldi	r23, 0x02	; 2
     364:	48 e0       	ldi	r20, 0x08	; 8
     366:	0e 94 65 00 	call	0xca	; 0xca <StrCmp>
     36a:	88 23       	and	r24, r24
     36c:	31 f4       	brne	.+12     	; 0x37a <CheckKey+0x2c>
		return 0;
	}else{
		clear_key();
     36e:	0e 94 85 00 	call	0x10a	; 0x10a <clear_key>
		return 1;
     372:	81 e0       	ldi	r24, 0x01	; 1
     374:	08 95       	ret
//---------------------------------------------------------------

char CheckKey ()
{
	if (!reset_ds1990(readedkeyid, KEYIDLEN))
		return 0;
     376:	80 e0       	ldi	r24, 0x00	; 0
     378:	08 95       	ret
//	return !StrCmp(readedkeyid, keyid, KEYIDLEN);

	if ( StrCmp(readedkeyid, keyid, KEYIDLEN) ){ // считываются разные ключи
		return 0;
     37a:	80 e0       	ldi	r24, 0x00	; 0
	}else{
		clear_key();
		return 1;
	}
}
     37c:	08 95       	ret

0000037e <CheckState>:
//---------------------------------------------------------------

char CheckState(char is_key_state)
{

	if (is_key_state == 1){ // first key, now just one 
     37e:	81 30       	cpi	r24, 0x01	; 1
     380:	01 f5       	brne	.+64     	; 0x3c2 <CheckState+0x44>
		if (is_game){
     382:	80 91 61 02 	lds	r24, 0x0261
     386:	88 23       	and	r24, r24
     388:	29 f0       	breq	.+10     	; 0x394 <CheckState+0x16>
			GameOver();
     38a:	0e 94 5d 01 	call	0x2ba	; 0x2ba <GameOver>
			is_key = 0;
     38e:	10 92 63 02 	sts	0x0263, r1
     392:	15 c0       	rjmp	.+42     	; 0x3be <CheckState+0x40>
			return 1;
		}else{
			is_key = 0;
     394:	10 92 63 02 	sts	0x0263, r1
			menu_pos = EADMIN;
     398:	82 e0       	ldi	r24, 0x02	; 2
     39a:	80 93 10 02 	sts	0x0210, r24
			LCDSendCommand(CLR_DISP); 
     39e:	81 e0       	ldi	r24, 0x01	; 1
     3a0:	0e 94 19 05 	call	0xa32	; 0xa32 <LCDSendCommand>
			LCDSendUnsafeCounteredTxt(menu[menu_pos], TEXTLEN);
     3a4:	80 91 10 02 	lds	r24, 0x0210
     3a8:	90 e0       	ldi	r25, 0x00	; 0
     3aa:	74 e0       	ldi	r23, 0x04	; 4
     3ac:	88 0f       	add	r24, r24
     3ae:	99 1f       	adc	r25, r25
     3b0:	7a 95       	dec	r23
     3b2:	e1 f7       	brne	.-8      	; 0x3ac <CheckState+0x2e>
     3b4:	80 56       	subi	r24, 0x60	; 96
     3b6:	9e 4f       	sbci	r25, 0xFE	; 254
     3b8:	60 e1       	ldi	r22, 0x10	; 16
     3ba:	0e 94 a4 05 	call	0xb48	; 0xb48 <LCDSendUnsafeCounteredTxt>
			return 1;				
     3be:	81 e0       	ldi	r24, 0x01	; 1
     3c0:	08 95       	ret
		}
	}
	return 0;
     3c2:	80 e0       	ldi	r24, 0x00	; 0
}
     3c4:	08 95       	ret

000003c6 <MenuSelect>:

//---------------------------------------------------------------

char MenuSelect(char key)
{	
     3c6:	1f 93       	push	r17
	static char pos = 0;
	static char addrr = 0;

	if (key != OKBUT && key != NOBUT){ // some digit
     3c8:	82 30       	cpi	r24, 0x02	; 2
     3ca:	09 f4       	brne	.+2      	; 0x3ce <MenuSelect+0x8>
     3cc:	6b c0       	rjmp	.+214    	; 0x4a4 <MenuSelect+0xde>
     3ce:	84 30       	cpi	r24, 0x04	; 4
     3d0:	31 f1       	breq	.+76     	; 0x41e <MenuSelect+0x58>

		if (pos == TEXTLEN)
     3d2:	90 91 6b 02 	lds	r25, 0x026B
     3d6:	90 31       	cpi	r25, 0x10	; 16
     3d8:	19 f4       	brne	.+6      	; 0x3e0 <MenuSelect+0x1a>
			pos--;
     3da:	9f e0       	ldi	r25, 0x0F	; 15
     3dc:	90 93 6b 02 	sts	0x026B, r25

		curtext[pos++] = key + 48; // from digit to asci simbol of digit
     3e0:	90 91 6b 02 	lds	r25, 0x026B
     3e4:	e9 2f       	mov	r30, r25
     3e6:	f0 e0       	ldi	r31, 0x00	; 0
     3e8:	e0 59       	subi	r30, 0x90	; 144
     3ea:	fd 4f       	sbci	r31, 0xFD	; 253
     3ec:	80 5d       	subi	r24, 0xD0	; 208
     3ee:	80 83       	st	Z, r24
     3f0:	89 2f       	mov	r24, r25
     3f2:	8f 5f       	subi	r24, 0xFF	; 255
     3f4:	80 93 6b 02 	sts	0x026B, r24

		for (char i = pos; i < TEXTLEN; i++){
			curtext[i] = ' ';
     3f8:	90 e2       	ldi	r25, 0x20	; 32
		if (pos == TEXTLEN)
			pos--;

		curtext[pos++] = key + 48; // from digit to asci simbol of digit

		for (char i = pos; i < TEXTLEN; i++){
     3fa:	06 c0       	rjmp	.+12     	; 0x408 <MenuSelect+0x42>
			curtext[i] = ' ';
     3fc:	e8 2f       	mov	r30, r24
     3fe:	f0 e0       	ldi	r31, 0x00	; 0
     400:	e0 59       	subi	r30, 0x90	; 144
     402:	fd 4f       	sbci	r31, 0xFD	; 253
     404:	90 83       	st	Z, r25
		if (pos == TEXTLEN)
			pos--;

		curtext[pos++] = key + 48; // from digit to asci simbol of digit

		for (char i = pos; i < TEXTLEN; i++){
     406:	8f 5f       	subi	r24, 0xFF	; 255
     408:	80 31       	cpi	r24, 0x10	; 16
     40a:	c0 f3       	brcs	.-16     	; 0x3fc <MenuSelect+0x36>
			curtext[i] = ' ';
		}

		LCDSendCommand(DD_RAM_ADDR2);
     40c:	80 ec       	ldi	r24, 0xC0	; 192
     40e:	0e 94 19 05 	call	0xa32	; 0xa32 <LCDSendCommand>
		LCDSendUnsafeCounteredTxt(curtext, TEXTLEN);
     412:	80 e7       	ldi	r24, 0x70	; 112
     414:	92 e0       	ldi	r25, 0x02	; 2
     416:	60 e1       	ldi	r22, 0x10	; 16
     418:	0e 94 a4 05 	call	0xb48	; 0xb48 <LCDSendUnsafeCounteredTxt>
     41c:	1d c1       	rjmp	.+570    	; 0x658 <MenuSelect+0x292>

	}else{ // command buttons
		if (key == NOBUT)
		{
			if (is_timer){ // game already started
     41e:	80 91 62 02 	lds	r24, 0x0262
     422:	88 23       	and	r24, r24
     424:	d9 f0       	breq	.+54     	; 0x45c <MenuSelect+0x96>
				menu_pos = ESTOP;
     426:	10 92 10 02 	sts	0x0210, r1
				LCDSendCommand(CLR_DISP); 
     42a:	81 e0       	ldi	r24, 0x01	; 1
     42c:	0e 94 19 05 	call	0xa32	; 0xa32 <LCDSendCommand>
				LCDSendUnsafeCounteredTxt(menu[menu_pos], TEXTLEN);
     430:	80 91 10 02 	lds	r24, 0x0210
     434:	90 e0       	ldi	r25, 0x00	; 0
     436:	f4 e0       	ldi	r31, 0x04	; 4
     438:	88 0f       	add	r24, r24
     43a:	99 1f       	adc	r25, r25
     43c:	fa 95       	dec	r31
     43e:	e1 f7       	brne	.-8      	; 0x438 <MenuSelect+0x72>
     440:	80 56       	subi	r24, 0x60	; 96
     442:	9e 4f       	sbci	r25, 0xFE	; 254
     444:	60 e1       	ldi	r22, 0x10	; 16
     446:	0e 94 a4 05 	call	0xb48	; 0xb48 <LCDSendUnsafeCounteredTxt>
     44a:	e0 e7       	ldi	r30, 0x70	; 112
     44c:	f2 e0       	ldi	r31, 0x02	; 2
				for (char i = 0; i < TEXTLEN; i++)
					curtext[i] = ' ';
     44e:	80 e2       	ldi	r24, 0x20	; 32
     450:	81 93       	st	Z+, r24
		{
			if (is_timer){ // game already started
				menu_pos = ESTOP;
				LCDSendCommand(CLR_DISP); 
				LCDSendUnsafeCounteredTxt(menu[menu_pos], TEXTLEN);
				for (char i = 0; i < TEXTLEN; i++)
     452:	92 e0       	ldi	r25, 0x02	; 2
     454:	e0 38       	cpi	r30, 0x80	; 128
     456:	f9 07       	cpc	r31, r25
     458:	d9 f7       	brne	.-10     	; 0x450 <MenuSelect+0x8a>
     45a:	20 c0       	rjmp	.+64     	; 0x49c <MenuSelect+0xd6>
					curtext[i] = ' ';
				pos = 0;
			}else{ // game not started
				if (is_admin){
     45c:	80 91 60 02 	lds	r24, 0x0260
     460:	88 23       	and	r24, r24
     462:	49 f0       	breq	.+18     	; 0x476 <MenuSelect+0xb0>
					if (++menu_pos == MENUCOUNT)
     464:	80 91 10 02 	lds	r24, 0x0210
     468:	8f 5f       	subi	r24, 0xFF	; 255
     46a:	80 93 10 02 	sts	0x0210, r24
     46e:	87 30       	cpi	r24, 0x07	; 7
     470:	29 f4       	brne	.+10     	; 0x47c <MenuSelect+0xb6>
						menu_pos = SADMIN; 
     472:	83 e0       	ldi	r24, 0x03	; 3
     474:	01 c0       	rjmp	.+2      	; 0x478 <MenuSelect+0xb2>
				}else{
					menu_pos = ESTART; 
     476:	81 e0       	ldi	r24, 0x01	; 1
     478:	80 93 10 02 	sts	0x0210, r24
				}
			
				LCDSendCommand(CLR_DISP); 
     47c:	81 e0       	ldi	r24, 0x01	; 1
     47e:	0e 94 19 05 	call	0xa32	; 0xa32 <LCDSendCommand>
				LCDSendUnsafeCounteredTxt(menu[menu_pos], TEXTLEN);
     482:	80 91 10 02 	lds	r24, 0x0210
     486:	90 e0       	ldi	r25, 0x00	; 0
     488:	e4 e0       	ldi	r30, 0x04	; 4
     48a:	88 0f       	add	r24, r24
     48c:	99 1f       	adc	r25, r25
     48e:	ea 95       	dec	r30
     490:	e1 f7       	brne	.-8      	; 0x48a <MenuSelect+0xc4>
     492:	80 56       	subi	r24, 0x60	; 96
     494:	9e 4f       	sbci	r25, 0xFE	; 254
     496:	60 e1       	ldi	r22, 0x10	; 16
     498:	0e 94 a4 05 	call	0xb48	; 0xb48 <LCDSendUnsafeCounteredTxt>
     49c:	e0 e7       	ldi	r30, 0x70	; 112
     49e:	f2 e0       	ldi	r31, 0x02	; 2
			}

		}

		for (char i = 0; i < TEXTLEN; i++)
			curtext[i] = ' ';
     4a0:	80 e2       	ldi	r24, 0x20	; 32
     4a2:	d3 c0       	rjmp	.+422    	; 0x64a <MenuSelect+0x284>
			
				LCDSendCommand(CLR_DISP); 
				LCDSendUnsafeCounteredTxt(menu[menu_pos], TEXTLEN);
			}
		}else{ // OKBUT try to enter some value
			switch (menu_pos){
     4a4:	10 91 10 02 	lds	r17, 0x0210
     4a8:	13 30       	cpi	r17, 0x03	; 3
     4aa:	09 f4       	brne	.+2      	; 0x4ae <MenuSelect+0xe8>
     4ac:	5a c0       	rjmp	.+180    	; 0x562 <MenuSelect+0x19c>
     4ae:	14 30       	cpi	r17, 0x04	; 4
     4b0:	28 f4       	brcc	.+10     	; 0x4bc <MenuSelect+0xf6>
     4b2:	11 30       	cpi	r17, 0x01	; 1
     4b4:	f9 f0       	breq	.+62     	; 0x4f4 <MenuSelect+0x12e>
     4b6:	12 30       	cpi	r17, 0x02	; 2
     4b8:	c0 f5       	brcc	.+112    	; 0x52a <MenuSelect+0x164>
     4ba:	09 c0       	rjmp	.+18     	; 0x4ce <MenuSelect+0x108>
     4bc:	15 30       	cpi	r17, 0x05	; 5
     4be:	09 f4       	brne	.+2      	; 0x4c2 <MenuSelect+0xfc>
     4c0:	77 c0       	rjmp	.+238    	; 0x5b0 <MenuSelect+0x1ea>
     4c2:	15 30       	cpi	r17, 0x05	; 5
     4c4:	08 f4       	brcc	.+2      	; 0x4c8 <MenuSelect+0x102>
     4c6:	65 c0       	rjmp	.+202    	; 0x592 <MenuSelect+0x1cc>
     4c8:	16 30       	cpi	r17, 0x06	; 6
     4ca:	41 f7       	brne	.-48     	; 0x49c <MenuSelect+0xd6>
     4cc:	89 c0       	rjmp	.+274    	; 0x5e0 <MenuSelect+0x21a>

				case ESTOP:
					if ( StrCmp(curtext, stopcode, TEXTLEN) ){
     4ce:	80 e7       	ldi	r24, 0x70	; 112
     4d0:	92 e0       	ldi	r25, 0x02	; 2
     4d2:	61 e3       	ldi	r22, 0x31	; 49
     4d4:	72 e0       	ldi	r23, 0x02	; 2
     4d6:	40 e1       	ldi	r20, 0x10	; 16
     4d8:	0e 94 65 00 	call	0xca	; 0xca <StrCmp>
     4dc:	88 23       	and	r24, r24
     4de:	99 f4       	brne	.+38     	; 0x506 <MenuSelect+0x140>
						LCDSendCommand(DD_RAM_ADDR2);
						LCDSendTxt(WRONGCODE);
					}else{
						LCDSendCommand(DD_RAM_ADDR2);
     4e0:	80 ec       	ldi	r24, 0xC0	; 192
     4e2:	0e 94 19 05 	call	0xa32	; 0xa32 <LCDSendCommand>
						LCDSendTxt(CODEOK);
     4e6:	83 e3       	ldi	r24, 0x33	; 51
     4e8:	91 e0       	ldi	r25, 0x01	; 1
     4ea:	0e 94 73 05 	call	0xae6	; 0xae6 <LCDSendTxt>
						GamePaused();
     4ee:	0e 94 7b 01 	call	0x2f6	; 0x2f6 <GamePaused>
     4f2:	d4 cf       	rjmp	.-88     	; 0x49c <MenuSelect+0xd6>
					}
					break;

				case ESTART:
					if ( StrCmp(curtext, startcode, TEXTLEN) ){
     4f4:	80 e7       	ldi	r24, 0x70	; 112
     4f6:	92 e0       	ldi	r25, 0x02	; 2
     4f8:	61 e2       	ldi	r22, 0x21	; 33
     4fa:	72 e0       	ldi	r23, 0x02	; 2
     4fc:	40 e1       	ldi	r20, 0x10	; 16
     4fe:	0e 94 65 00 	call	0xca	; 0xca <StrCmp>
     502:	88 23       	and	r24, r24
     504:	31 f0       	breq	.+12     	; 0x512 <MenuSelect+0x14c>
						LCDSendCommand(DD_RAM_ADDR2);
     506:	80 ec       	ldi	r24, 0xC0	; 192
     508:	0e 94 19 05 	call	0xa32	; 0xa32 <LCDSendCommand>
						LCDSendTxt(WRONGCODE);
     50c:	82 e2       	ldi	r24, 0x22	; 34
     50e:	91 e0       	ldi	r25, 0x01	; 1
     510:	1a c0       	rjmp	.+52     	; 0x546 <MenuSelect+0x180>
					}else{
						LCDSendCommand(DD_RAM_ADDR2);
     512:	80 ec       	ldi	r24, 0xC0	; 192
     514:	0e 94 19 05 	call	0xa32	; 0xa32 <LCDSendCommand>
						LCDSendTxt(CODEOK);
     518:	83 e3       	ldi	r24, 0x33	; 51
     51a:	91 e0       	ldi	r25, 0x01	; 1
     51c:	0e 94 73 05 	call	0xae6	; 0xae6 <LCDSendTxt>
						is_timer = 1;
     520:	10 93 62 02 	sts	0x0262, r17
						is_game = 1;
     524:	10 93 61 02 	sts	0x0261, r17
     528:	b9 cf       	rjmp	.-142    	; 0x49c <MenuSelect+0xd6>
					}
					break;

				case EADMIN:
					if ( StrCmp(curtext, adminpass, TEXTLEN) ){
     52a:	80 e7       	ldi	r24, 0x70	; 112
     52c:	92 e0       	ldi	r25, 0x02	; 2
     52e:	61 e1       	ldi	r22, 0x11	; 17
     530:	72 e0       	ldi	r23, 0x02	; 2
     532:	40 e1       	ldi	r20, 0x10	; 16
     534:	0e 94 65 00 	call	0xca	; 0xca <StrCmp>
     538:	88 23       	and	r24, r24
     53a:	41 f0       	breq	.+16     	; 0x54c <MenuSelect+0x186>
						LCDSendCommand(DD_RAM_ADDR2);
     53c:	80 ec       	ldi	r24, 0xC0	; 192
     53e:	0e 94 19 05 	call	0xa32	; 0xa32 <LCDSendCommand>
						LCDSendTxt(WRONGPASS);
     542:	84 e4       	ldi	r24, 0x44	; 68
     544:	91 e0       	ldi	r25, 0x01	; 1
     546:	0e 94 73 05 	call	0xae6	; 0xae6 <LCDSendTxt>
     54a:	a8 cf       	rjmp	.-176    	; 0x49c <MenuSelect+0xd6>
					}else{
						LCDSendCommand(DD_RAM_ADDR2);
     54c:	80 ec       	ldi	r24, 0xC0	; 192
     54e:	0e 94 19 05 	call	0xa32	; 0xa32 <LCDSendCommand>
						LCDSendTxt(CORRECTPASS);
     552:	85 e5       	ldi	r24, 0x55	; 85
     554:	91 e0       	ldi	r25, 0x01	; 1
     556:	0e 94 73 05 	call	0xae6	; 0xae6 <LCDSendTxt>
						is_admin = 1;
     55a:	81 e0       	ldi	r24, 0x01	; 1
     55c:	80 93 60 02 	sts	0x0260, r24
     560:	9d cf       	rjmp	.-198    	; 0x49c <MenuSelect+0xd6>
					}
					break;

				case SADMIN:
					StrCp(curtext, adminpass, TEXTLEN);
     562:	80 e7       	ldi	r24, 0x70	; 112
     564:	92 e0       	ldi	r25, 0x02	; 2
     566:	61 e1       	ldi	r22, 0x11	; 17
     568:	72 e0       	ldi	r23, 0x02	; 2
     56a:	40 e1       	ldi	r20, 0x10	; 16
     56c:	0e 94 77 00 	call	0xee	; 0xee <StrCp>

					addrr = EEPROMADR_STARTADDR + TEXTLEN * EEPROMADRORDER_ADMPASS;
     570:	81 e0       	ldi	r24, 0x01	; 1
     572:	80 93 6a 02 	sts	0x026A, r24
					eeprom_write_block (adminpass, addrr, TEXTLEN);
     576:	81 e1       	ldi	r24, 0x11	; 17
     578:	92 e0       	ldi	r25, 0x02	; 2
     57a:	61 e0       	ldi	r22, 0x01	; 1
     57c:	70 e0       	ldi	r23, 0x00	; 0
     57e:	40 e1       	ldi	r20, 0x10	; 16
     580:	50 e0       	ldi	r21, 0x00	; 0
     582:	0e 94 ec 07 	call	0xfd8	; 0xfd8 <__eewr_block_m64>

					LCDSendCommand(DD_RAM_ADDR2);
     586:	80 ec       	ldi	r24, 0xC0	; 192
     588:	0e 94 19 05 	call	0xa32	; 0xa32 <LCDSendCommand>
					LCDSendTxt(CORRECTPASS);
     58c:	85 e5       	ldi	r24, 0x55	; 85
     58e:	91 e0       	ldi	r25, 0x01	; 1
     590:	da cf       	rjmp	.-76     	; 0x546 <MenuSelect+0x180>
					break;

				case SSTART:
					StrCp(curtext, startcode, TEXTLEN);
     592:	80 e7       	ldi	r24, 0x70	; 112
     594:	92 e0       	ldi	r25, 0x02	; 2
     596:	61 e2       	ldi	r22, 0x21	; 33
     598:	72 e0       	ldi	r23, 0x02	; 2
     59a:	40 e1       	ldi	r20, 0x10	; 16
     59c:	0e 94 77 00 	call	0xee	; 0xee <StrCp>

					addrr = EEPROMADR_STARTADDR + TEXTLEN * EEPROMADRORDER_STARTCODE;
     5a0:	81 e1       	ldi	r24, 0x11	; 17
     5a2:	80 93 6a 02 	sts	0x026A, r24
					eeprom_write_block (startcode, addrr, TEXTLEN);
     5a6:	81 e2       	ldi	r24, 0x21	; 33
     5a8:	92 e0       	ldi	r25, 0x02	; 2
     5aa:	61 e1       	ldi	r22, 0x11	; 17
     5ac:	70 e0       	ldi	r23, 0x00	; 0
     5ae:	0e c0       	rjmp	.+28     	; 0x5cc <MenuSelect+0x206>
					LCDSendCommand(DD_RAM_ADDR2);
					LCDSendTxt(CODEOK);
					break;

				case SSTOP:
					StrCp(curtext, stopcode, TEXTLEN);
     5b0:	80 e7       	ldi	r24, 0x70	; 112
     5b2:	92 e0       	ldi	r25, 0x02	; 2
     5b4:	61 e3       	ldi	r22, 0x31	; 49
     5b6:	72 e0       	ldi	r23, 0x02	; 2
     5b8:	40 e1       	ldi	r20, 0x10	; 16
     5ba:	0e 94 77 00 	call	0xee	; 0xee <StrCp>

					addrr = EEPROMADR_STARTADDR + TEXTLEN * EEPROMADRORDER_STOPCODE;
     5be:	81 e2       	ldi	r24, 0x21	; 33
     5c0:	80 93 6a 02 	sts	0x026A, r24
					eeprom_write_block (stopcode, addrr, TEXTLEN);
     5c4:	81 e3       	ldi	r24, 0x31	; 49
     5c6:	92 e0       	ldi	r25, 0x02	; 2
     5c8:	61 e2       	ldi	r22, 0x21	; 33
     5ca:	70 e0       	ldi	r23, 0x00	; 0
     5cc:	40 e1       	ldi	r20, 0x10	; 16
     5ce:	50 e0       	ldi	r21, 0x00	; 0
     5d0:	0e 94 ec 07 	call	0xfd8	; 0xfd8 <__eewr_block_m64>
	
					LCDSendCommand(DD_RAM_ADDR2);
     5d4:	80 ec       	ldi	r24, 0xC0	; 192
     5d6:	0e 94 19 05 	call	0xa32	; 0xa32 <LCDSendCommand>
					LCDSendTxt(CODEOK);
     5da:	83 e3       	ldi	r24, 0x33	; 51
     5dc:	91 e0       	ldi	r25, 0x01	; 1
     5de:	b3 cf       	rjmp	.-154    	; 0x546 <MenuSelect+0x180>
					break;
     5e0:	e0 e7       	ldi	r30, 0x70	; 112
     5e2:	f2 e0       	ldi	r31, 0x02	; 2

				case STIMER:

					for (char i = 0; i < TEXTLEN; i++)
						if (curtext[i] == ' ')
     5e4:	80 81       	ld	r24, Z
     5e6:	80 32       	cpi	r24, 0x20	; 32
     5e8:	09 f4       	brne	.+2      	; 0x5ec <MenuSelect+0x226>
							curtext[i] = 0;	
     5ea:	10 82       	st	Z, r1
     5ec:	31 96       	adiw	r30, 0x01	; 1
					LCDSendTxt(CODEOK);
					break;

				case STIMER:

					for (char i = 0; i < TEXTLEN; i++)
     5ee:	82 e0       	ldi	r24, 0x02	; 2
     5f0:	e0 38       	cpi	r30, 0x80	; 128
     5f2:	f8 07       	cpc	r31, r24
     5f4:	b9 f7       	brne	.-18     	; 0x5e4 <MenuSelect+0x21e>
						if (curtext[i] == ' ')
							curtext[i] = 0;	
					timer_init_val = atoi(curtext);
     5f6:	cf 01       	movw	r24, r30
     5f8:	40 97       	sbiw	r24, 0x10	; 16
     5fa:	0e 94 b0 07 	call	0xf60	; 0xf60 <atoi>
     5fe:	ac 01       	movw	r20, r24
     600:	66 27       	eor	r22, r22
     602:	57 fd       	sbrc	r21, 7
     604:	60 95       	com	r22
     606:	76 2f       	mov	r23, r22
     608:	40 93 51 02 	sts	0x0251, r20
     60c:	50 93 52 02 	sts	0x0252, r21
     610:	60 93 53 02 	sts	0x0253, r22
     614:	70 93 54 02 	sts	0x0254, r23
					timer_cur = timer_init_val;
     618:	40 93 65 02 	sts	0x0265, r20
     61c:	50 93 66 02 	sts	0x0266, r21
     620:	60 93 67 02 	sts	0x0267, r22
     624:	70 93 68 02 	sts	0x0268, r23

					addrr = EEPROMADR_STARTADDR + TEXTLEN * EEPROMADRORDER_TIMER;
     628:	81 e3       	ldi	r24, 0x31	; 49
     62a:	80 93 6a 02 	sts	0x026A, r24
					eeprom_write_dword (addrr, timer_init_val);
     62e:	81 e3       	ldi	r24, 0x31	; 49
     630:	90 e0       	ldi	r25, 0x00	; 0
     632:	0e 94 03 08 	call	0x1006	; 0x1006 <__eewr_dword_m64>

					LCDSendCommand(DD_RAM_ADDR2);
     636:	80 ec       	ldi	r24, 0xC0	; 192
     638:	0e 94 19 05 	call	0xa32	; 0xa32 <LCDSendCommand>
					LCDSendTxt(TIMEROK);
     63c:	86 e6       	ldi	r24, 0x66	; 102
     63e:	91 e0       	ldi	r25, 0x01	; 1
     640:	0e 94 73 05 	call	0xae6	; 0xae6 <LCDSendTxt>
					is_admin = 0;
     644:	10 92 60 02 	sts	0x0260, r1
					break;
     648:	29 cf       	rjmp	.-430    	; 0x49c <MenuSelect+0xd6>
			}

		}

		for (char i = 0; i < TEXTLEN; i++)
			curtext[i] = ' ';
     64a:	81 93       	st	Z+, r24

			}

		}

		for (char i = 0; i < TEXTLEN; i++)
     64c:	92 e0       	ldi	r25, 0x02	; 2
     64e:	e0 38       	cpi	r30, 0x80	; 128
     650:	f9 07       	cpc	r31, r25
     652:	d9 f7       	brne	.-10     	; 0x64a <MenuSelect+0x284>
			curtext[i] = ' ';
		pos = 0;
     654:	10 92 6b 02 	sts	0x026B, r1
			
	}

	return 0;
}
     658:	80 e0       	ldi	r24, 0x00	; 0
     65a:	1f 91       	pop	r17
     65c:	08 95       	ret

0000065e <Port_Init>:

//---------------------------------------------------------------

void Port_Init()
{
	PORTA = 0b00000000;		DDRA = 0b00111111;
     65e:	1b ba       	out	0x1b, r1	; 27
     660:	8f e3       	ldi	r24, 0x3F	; 63
     662:	8a bb       	out	0x1a, r24	; 26
	PORTB = 0b00000000;		DDRB = 0b11000000;
     664:	18 ba       	out	0x18, r1	; 24
     666:	80 ec       	ldi	r24, 0xC0	; 192
     668:	87 bb       	out	0x17, r24	; 23
	LCDPORT = 0b00000000;	DDRC = 0b11110111;
     66a:	15 ba       	out	0x15, r1	; 21
     66c:	97 ef       	ldi	r25, 0xF7	; 247
     66e:	94 bb       	out	0x14, r25	; 20
	PORTD = 0b11000000;		DDRD = 0b00000000;
     670:	82 bb       	out	0x12, r24	; 18
     672:	11 ba       	out	0x11, r1	; 17
	PORTE = 0b00000000;		DDRE = 0b11111111;
     674:	13 b8       	out	0x03, r1	; 3
     676:	8f ef       	ldi	r24, 0xFF	; 255
     678:	82 b9       	out	0x02, r24	; 2
	PORTF = 0b00000000;		DDRF = 0b00001111;	
     67a:	10 92 62 00 	sts	0x0062, r1
     67e:	8f e0       	ldi	r24, 0x0F	; 15
     680:	80 93 61 00 	sts	0x0061, r24
//	PORTG = 0b00000000;		DDRG = 0b00000000;
}
     684:	08 95       	ret

00000686 <SetupTIMER1>:

//-------------------------------------------------------------------

void SetupTIMER1 (void)
{
     TCCR1B = (1<<CS12);
     686:	84 e0       	ldi	r24, 0x04	; 4
     688:	8e bd       	out	0x2e, r24	; 46
     TCNT1 = 65536-50;        
     68a:	8e ec       	ldi	r24, 0xCE	; 206
     68c:	9f ef       	ldi	r25, 0xFF	; 255
     68e:	9d bd       	out	0x2d, r25	; 45
     690:	8c bd       	out	0x2c, r24	; 44
     TIMSK |= (1<<TOIE1); // разрешим прерывание по таймеру
     692:	87 b7       	in	r24, 0x37	; 55
     694:	84 60       	ori	r24, 0x04	; 4
     696:	87 bf       	out	0x37, r24	; 55
 	 sei();
     698:	78 94       	sei
}
     69a:	08 95       	ret

0000069c <SetupTIMER0>:

//---------------------------------------------------------------

void SetupTIMER0 (void)
{
	TIMSK &=~(1<<OCIE0 | 1<< TOIE0);	// Запрещаем прерывания таймера 2
     69c:	87 b7       	in	r24, 0x37	; 55
     69e:	8c 7f       	andi	r24, 0xFC	; 252
     6a0:	87 bf       	out	0x37, r24	; 55
	ASSR  = 1<<AS0;				// Включаем асинхронный режим
     6a2:	88 e0       	ldi	r24, 0x08	; 8
     6a4:	80 bf       	out	0x30, r24	; 48
	TCNT0 = 0;
     6a6:	12 be       	out	0x32, r1	; 50
	TCCR0 = 5<<CS20; 
     6a8:	85 e0       	ldi	r24, 0x05	; 5
     6aa:	83 bf       	out	0x33, r24	; 51
	TIMSK |= 1<< TOIE0;
     6ac:	87 b7       	in	r24, 0x37	; 55
     6ae:	81 60       	ori	r24, 0x01	; 1
     6b0:	87 bf       	out	0x37, r24	; 55
}
     6b2:	08 95       	ret

000006b4 <__vector_14>:
//---------------------------------------------------------------

ISR (TIMER1_OVF_vect)
{
     6b4:	1f 92       	push	r1
     6b6:	0f 92       	push	r0
     6b8:	0f b6       	in	r0, 0x3f	; 63
     6ba:	0f 92       	push	r0
     6bc:	11 24       	eor	r1, r1
     6be:	2f 93       	push	r18
     6c0:	3f 93       	push	r19
     6c2:	4f 93       	push	r20
     6c4:	5f 93       	push	r21
     6c6:	6f 93       	push	r22
     6c8:	7f 93       	push	r23
     6ca:	8f 93       	push	r24
     6cc:	9f 93       	push	r25
     6ce:	af 93       	push	r26
     6d0:	bf 93       	push	r27
     6d2:	ef 93       	push	r30
     6d4:	ff 93       	push	r31
	static char key = 0;


	PrintToSevenSeg(timer_cur);
     6d6:	60 91 65 02 	lds	r22, 0x0265
     6da:	70 91 66 02 	lds	r23, 0x0266
     6de:	80 91 67 02 	lds	r24, 0x0267
     6e2:	90 91 68 02 	lds	r25, 0x0268
     6e6:	0e 94 b3 00 	call	0x166	; 0x166 <PrintToSevenSeg>

	if (!is_key)
     6ea:	80 91 63 02 	lds	r24, 0x0263
     6ee:	88 23       	and	r24, r24
     6f0:	29 f4       	brne	.+10     	; 0x6fc <__vector_14+0x48>
		is_key = CheckKey();
     6f2:	0e 94 a7 01 	call	0x34e	; 0x34e <CheckKey>
     6f6:	80 93 63 02 	sts	0x0263, r24
     6fa:	02 c0       	rjmp	.+4      	; 0x700 <__vector_14+0x4c>
	else
		CheckState(is_key);
     6fc:	0e 94 bf 01 	call	0x37e	; 0x37e <CheckState>

	key = GetButton();
     700:	0e 94 97 00 	call	0x12e	; 0x12e <GetButton>
     704:	80 93 69 02 	sts	0x0269, r24
	if (key)
     708:	88 23       	and	r24, r24
     70a:	11 f0       	breq	.+4      	; 0x710 <__vector_14+0x5c>
		MenuSelect(key);
     70c:	0e 94 e3 01 	call	0x3c6	; 0x3c6 <MenuSelect>

	// run timer
	TCNT1 = 65536- 30; //  31220;
     710:	82 ee       	ldi	r24, 0xE2	; 226
     712:	9f ef       	ldi	r25, 0xFF	; 255
     714:	9d bd       	out	0x2d, r25	; 45
     716:	8c bd       	out	0x2c, r24	; 44
    TCCR1B = (1<<CS12);
     718:	84 e0       	ldi	r24, 0x04	; 4
     71a:	8e bd       	out	0x2e, r24	; 46
    TIMSK |= (1<<TOIE1);
     71c:	87 b7       	in	r24, 0x37	; 55
     71e:	84 60       	ori	r24, 0x04	; 4
     720:	87 bf       	out	0x37, r24	; 55


}
     722:	ff 91       	pop	r31
     724:	ef 91       	pop	r30
     726:	bf 91       	pop	r27
     728:	af 91       	pop	r26
     72a:	9f 91       	pop	r25
     72c:	8f 91       	pop	r24
     72e:	7f 91       	pop	r23
     730:	6f 91       	pop	r22
     732:	5f 91       	pop	r21
     734:	4f 91       	pop	r20
     736:	3f 91       	pop	r19
     738:	2f 91       	pop	r18
     73a:	0f 90       	pop	r0
     73c:	0f be       	out	0x3f, r0	; 63
     73e:	0f 90       	pop	r0
     740:	1f 90       	pop	r1
     742:	18 95       	reti

00000744 <__vector_16>:

//---------------------------------------------------------------

ISR (TIMER0_OVF_vect)
{
     744:	1f 92       	push	r1
     746:	0f 92       	push	r0
     748:	0f b6       	in	r0, 0x3f	; 63
     74a:	0f 92       	push	r0
     74c:	11 24       	eor	r1, r1
     74e:	2f 93       	push	r18
     750:	3f 93       	push	r19
     752:	4f 93       	push	r20
     754:	5f 93       	push	r21
     756:	6f 93       	push	r22
     758:	7f 93       	push	r23
     75a:	8f 93       	push	r24
     75c:	9f 93       	push	r25
     75e:	af 93       	push	r26
     760:	bf 93       	push	r27
     762:	ef 93       	push	r30
     764:	ff 93       	push	r31

//DEBUG
if (!timer_cur--){
     766:	80 91 65 02 	lds	r24, 0x0265
     76a:	90 91 66 02 	lds	r25, 0x0266
     76e:	a0 91 67 02 	lds	r26, 0x0267
     772:	b0 91 68 02 	lds	r27, 0x0268
     776:	9c 01       	movw	r18, r24
     778:	ad 01       	movw	r20, r26
     77a:	21 50       	subi	r18, 0x01	; 1
     77c:	30 40       	sbci	r19, 0x00	; 0
     77e:	40 40       	sbci	r20, 0x00	; 0
     780:	50 40       	sbci	r21, 0x00	; 0
     782:	20 93 65 02 	sts	0x0265, r18
     786:	30 93 66 02 	sts	0x0266, r19
     78a:	40 93 67 02 	sts	0x0267, r20
     78e:	50 93 68 02 	sts	0x0268, r21
     792:	00 97       	sbiw	r24, 0x00	; 0
     794:	a1 05       	cpc	r26, r1
     796:	b1 05       	cpc	r27, r1
     798:	61 f4       	brne	.+24     	; 0x7b2 <__vector_16+0x6e>

	timer_cur=36000;
     79a:	80 ea       	ldi	r24, 0xA0	; 160
     79c:	9c e8       	ldi	r25, 0x8C	; 140
     79e:	a0 e0       	ldi	r26, 0x00	; 0
     7a0:	b0 e0       	ldi	r27, 0x00	; 0
     7a2:	80 93 65 02 	sts	0x0265, r24
     7a6:	90 93 66 02 	sts	0x0266, r25
     7aa:	a0 93 67 02 	sts	0x0267, r26
     7ae:	b0 93 68 02 	sts	0x0268, r27
}
//NODEBUG

	if (is_timer){
     7b2:	80 91 62 02 	lds	r24, 0x0262
     7b6:	88 23       	and	r24, r24
     7b8:	e9 f0       	breq	.+58     	; 0x7f4 <__vector_16+0xb0>
		if (!(--timer_cur))
     7ba:	80 91 65 02 	lds	r24, 0x0265
     7be:	90 91 66 02 	lds	r25, 0x0266
     7c2:	a0 91 67 02 	lds	r26, 0x0267
     7c6:	b0 91 68 02 	lds	r27, 0x0268
     7ca:	01 97       	sbiw	r24, 0x01	; 1
     7cc:	a1 09       	sbc	r26, r1
     7ce:	b1 09       	sbc	r27, r1
     7d0:	80 93 65 02 	sts	0x0265, r24
     7d4:	90 93 66 02 	sts	0x0266, r25
     7d8:	a0 93 67 02 	sts	0x0267, r26
     7dc:	b0 93 68 02 	sts	0x0268, r27
     7e0:	00 97       	sbiw	r24, 0x00	; 0
     7e2:	a1 05       	cpc	r26, r1
     7e4:	b1 05       	cpc	r27, r1
     7e6:	11 f4       	brne	.+4      	; 0x7ec <__vector_16+0xa8>
			MakeBoom();	
     7e8:	0e 94 7f 01 	call	0x2fe	; 0x2fe <MakeBoom>
		
		INVBIT(PORTA,6);
     7ec:	8b b3       	in	r24, 0x1b	; 27
     7ee:	90 e4       	ldi	r25, 0x40	; 64
     7f0:	89 27       	eor	r24, r25
     7f2:	8b bb       	out	0x1b, r24	; 27
	}	
}
     7f4:	ff 91       	pop	r31
     7f6:	ef 91       	pop	r30
     7f8:	bf 91       	pop	r27
     7fa:	af 91       	pop	r26
     7fc:	9f 91       	pop	r25
     7fe:	8f 91       	pop	r24
     800:	7f 91       	pop	r23
     802:	6f 91       	pop	r22
     804:	5f 91       	pop	r21
     806:	4f 91       	pop	r20
     808:	3f 91       	pop	r19
     80a:	2f 91       	pop	r18
     80c:	0f 90       	pop	r0
     80e:	0f be       	out	0x3f, r0	; 63
     810:	0f 90       	pop	r0
     812:	1f 90       	pop	r1
     814:	18 95       	reti

00000816 <GetSavedData>:
{
	char addr = 0;

	//get admin pass
	addr = EEPROMADR_STARTADDR + TEXTLEN * EEPROMADRORDER_ADMPASS;
	eeprom_read_block (adminpass, addr, TEXTLEN);
     816:	81 e1       	ldi	r24, 0x11	; 17
     818:	92 e0       	ldi	r25, 0x02	; 2
     81a:	61 e0       	ldi	r22, 0x01	; 1
     81c:	70 e0       	ldi	r23, 0x00	; 0
     81e:	40 e1       	ldi	r20, 0x10	; 16
     820:	50 e0       	ldi	r21, 0x00	; 0
     822:	0e 94 d6 07 	call	0xfac	; 0xfac <__eerd_block_m64>

	//get start code
	addr = EEPROMADR_STARTADDR + TEXTLEN * EEPROMADRORDER_STARTCODE;
	eeprom_read_block (startcode, addr, TEXTLEN);
     826:	81 e2       	ldi	r24, 0x21	; 33
     828:	92 e0       	ldi	r25, 0x02	; 2
     82a:	61 e1       	ldi	r22, 0x11	; 17
     82c:	70 e0       	ldi	r23, 0x00	; 0
     82e:	40 e1       	ldi	r20, 0x10	; 16
     830:	50 e0       	ldi	r21, 0x00	; 0
     832:	0e 94 d6 07 	call	0xfac	; 0xfac <__eerd_block_m64>

	//get stop code
	addr = EEPROMADR_STARTADDR + TEXTLEN * EEPROMADRORDER_STOPCODE;
	eeprom_read_block (stopcode, addr, TEXTLEN);
     836:	81 e3       	ldi	r24, 0x31	; 49
     838:	92 e0       	ldi	r25, 0x02	; 2
     83a:	61 e2       	ldi	r22, 0x21	; 33
     83c:	70 e0       	ldi	r23, 0x00	; 0
     83e:	40 e1       	ldi	r20, 0x10	; 16
     840:	50 e0       	ldi	r21, 0x00	; 0
     842:	0e 94 d6 07 	call	0xfac	; 0xfac <__eerd_block_m64>
	

	// get timer initial value
	addr = EEPROMADR_STARTADDR + TEXTLEN * EEPROMADRORDER_TIMER;
	timer_init_val = eeprom_read_dword(addr);
     846:	81 e3       	ldi	r24, 0x31	; 49
     848:	90 e0       	ldi	r25, 0x00	; 0
     84a:	0e 94 e6 07 	call	0xfcc	; 0xfcc <__eerd_dword_m64>
     84e:	60 93 51 02 	sts	0x0251, r22
     852:	70 93 52 02 	sts	0x0252, r23
     856:	80 93 53 02 	sts	0x0253, r24
     85a:	90 93 54 02 	sts	0x0254, r25
	

	//get keyID
	addr = EEPROMADR_STARTADDR + TEXTLEN * EEPROMADRORDER_KEY;
	eeprom_read_block (keyid, addr, KEYIDLEN);
     85e:	81 e4       	ldi	r24, 0x41	; 65
     860:	92 e0       	ldi	r25, 0x02	; 2
     862:	61 e4       	ldi	r22, 0x41	; 65
     864:	70 e0       	ldi	r23, 0x00	; 0
     866:	48 e0       	ldi	r20, 0x08	; 8
     868:	50 e0       	ldi	r21, 0x00	; 0
     86a:	0e 94 d6 07 	call	0xfac	; 0xfac <__eerd_block_m64>

	timer_cur = timer_init_val;
     86e:	80 91 51 02 	lds	r24, 0x0251
     872:	90 91 52 02 	lds	r25, 0x0252
     876:	a0 91 53 02 	lds	r26, 0x0253
     87a:	b0 91 54 02 	lds	r27, 0x0254
     87e:	80 93 65 02 	sts	0x0265, r24
     882:	90 93 66 02 	sts	0x0266, r25
     886:	a0 93 67 02 	sts	0x0267, r26
     88a:	b0 93 68 02 	sts	0x0268, r27
	return 0;
}
     88e:	80 e0       	ldi	r24, 0x00	; 0
     890:	08 95       	ret

00000892 <CheckResset>:

//---------------------------------------------------------------

void CheckResset()
{
	if (!(BUTTONPIN & 0b00000001)){
     892:	c8 99       	sbic	0x19, 0	; 25
     894:	72 c0       	rjmp	.+228    	; 0x97a <CheckResset+0xe8>
		char addrr;

		addrr = EEPROMADR_STARTADDR + TEXTLEN * EEPROMADRORDER_ADMPASS;
		eeprom_write_block (adminpass, addrr, TEXTLEN);
     896:	81 e1       	ldi	r24, 0x11	; 17
     898:	92 e0       	ldi	r25, 0x02	; 2
     89a:	61 e0       	ldi	r22, 0x01	; 1
     89c:	70 e0       	ldi	r23, 0x00	; 0
     89e:	40 e1       	ldi	r20, 0x10	; 16
     8a0:	50 e0       	ldi	r21, 0x00	; 0
     8a2:	0e 94 ec 07 	call	0xfd8	; 0xfd8 <__eewr_block_m64>

		addrr = EEPROMADR_STARTADDR + TEXTLEN * EEPROMADRORDER_STARTCODE;
		eeprom_write_block (startcode, addrr, TEXTLEN);
     8a6:	81 e2       	ldi	r24, 0x21	; 33
     8a8:	92 e0       	ldi	r25, 0x02	; 2
     8aa:	61 e1       	ldi	r22, 0x11	; 17
     8ac:	70 e0       	ldi	r23, 0x00	; 0
     8ae:	40 e1       	ldi	r20, 0x10	; 16
     8b0:	50 e0       	ldi	r21, 0x00	; 0
     8b2:	0e 94 ec 07 	call	0xfd8	; 0xfd8 <__eewr_block_m64>

		addrr = EEPROMADR_STARTADDR + TEXTLEN * EEPROMADRORDER_STOPCODE;
		eeprom_write_block (stopcode, addrr, TEXTLEN);
     8b6:	81 e3       	ldi	r24, 0x31	; 49
     8b8:	92 e0       	ldi	r25, 0x02	; 2
     8ba:	61 e2       	ldi	r22, 0x21	; 33
     8bc:	70 e0       	ldi	r23, 0x00	; 0
     8be:	40 e1       	ldi	r20, 0x10	; 16
     8c0:	50 e0       	ldi	r21, 0x00	; 0
     8c2:	0e 94 ec 07 	call	0xfd8	; 0xfd8 <__eewr_block_m64>

		addrr = EEPROMADR_STARTADDR + TEXTLEN * EEPROMADRORDER_TIMER;
		eeprom_write_dword (addrr, timer_init_val);
     8c6:	40 91 51 02 	lds	r20, 0x0251
     8ca:	50 91 52 02 	lds	r21, 0x0252
     8ce:	60 91 53 02 	lds	r22, 0x0253
     8d2:	70 91 54 02 	lds	r23, 0x0254
     8d6:	81 e3       	ldi	r24, 0x31	; 49
     8d8:	90 e0       	ldi	r25, 0x00	; 0
     8da:	0e 94 03 08 	call	0x1006	; 0x1006 <__eewr_dword_m64>

		LCDSendCommand(CLR_DISP);
     8de:	81 e0       	ldi	r24, 0x01	; 1
     8e0:	0e 94 19 05 	call	0xa32	; 0xa32 <LCDSendCommand>
		LCDSendTxt("PUT THE KEY!");
     8e4:	87 e7       	ldi	r24, 0x77	; 119
     8e6:	91 e0       	ldi	r25, 0x01	; 1
     8e8:	0e 94 73 05 	call	0xae6	; 0xae6 <LCDSendTxt>

		char is_exit = 0;
		while (!is_exit) {
			if (!reset_ds1990(readedkeyid, KEYIDLEN))
     8ec:	89 e4       	ldi	r24, 0x49	; 73
     8ee:	92 e0       	ldi	r25, 0x02	; 2
     8f0:	68 e0       	ldi	r22, 0x08	; 8
     8f2:	0e 94 0e 07 	call	0xe1c	; 0xe1c <reset_ds1990>
     8f6:	88 23       	and	r24, r24
     8f8:	c9 f3       	breq	.-14     	; 0x8ec <CheckResset+0x5a>
				continue;

			if ( StrCmp(readedkeyid, keyid, KEYIDLEN) ){ // считываются разные ключи
     8fa:	89 e4       	ldi	r24, 0x49	; 73
     8fc:	92 e0       	ldi	r25, 0x02	; 2
     8fe:	61 e4       	ldi	r22, 0x41	; 65
     900:	72 e0       	ldi	r23, 0x02	; 2
     902:	48 e0       	ldi	r20, 0x08	; 8
     904:	0e 94 65 00 	call	0xca	; 0xca <StrCmp>
     908:	88 23       	and	r24, r24
     90a:	81 f0       	breq	.+32     	; 0x92c <CheckResset+0x9a>
				StrCp(readedkeyid, keyid, KEYIDLEN);
     90c:	89 e4       	ldi	r24, 0x49	; 73
     90e:	92 e0       	ldi	r25, 0x02	; 2
     910:	61 e4       	ldi	r22, 0x41	; 65
     912:	72 e0       	ldi	r23, 0x02	; 2
     914:	48 e0       	ldi	r20, 0x08	; 8
     916:	0e 94 77 00 	call	0xee	; 0xee <StrCp>
				LCDSendCommand(CLR_DISP);
     91a:	81 e0       	ldi	r24, 0x01	; 1
     91c:	0e 94 19 05 	call	0xa32	; 0xa32 <LCDSendCommand>
				LCDSendTxt("WRONG KEY READ!");
     920:	84 e8       	ldi	r24, 0x84	; 132
     922:	91 e0       	ldi	r25, 0x01	; 1
     924:	0e 94 73 05 	call	0xae6	; 0xae6 <LCDSendTxt>
     928:	80 e0       	ldi	r24, 0x00	; 0
     92a:	1e c0       	rjmp	.+60     	; 0x968 <CheckResset+0xd6>
			}else{										// считанные ключи совпали
				char addr = EEPROMADR_STARTADDR + TEXTLEN * EEPROMADRORDER_KEY;
				eeprom_write_block (keyid, addr, KEYIDLEN);
     92c:	81 e4       	ldi	r24, 0x41	; 65
     92e:	92 e0       	ldi	r25, 0x02	; 2
     930:	61 e4       	ldi	r22, 0x41	; 65
     932:	70 e0       	ldi	r23, 0x00	; 0
     934:	48 e0       	ldi	r20, 0x08	; 8
     936:	50 e0       	ldi	r21, 0x00	; 0
     938:	0e 94 ec 07 	call	0xfd8	; 0xfd8 <__eewr_block_m64>
				is_exit = 1;

				LCDSendCommand(CLR_DISP);
     93c:	81 e0       	ldi	r24, 0x01	; 1
     93e:	0e 94 19 05 	call	0xa32	; 0xa32 <LCDSendCommand>
				LCDSendTxt("KEY READED!");
     942:	84 e9       	ldi	r24, 0x94	; 148
     944:	91 e0       	ldi	r25, 0x01	; 1
     946:	0e 94 73 05 	call	0xae6	; 0xae6 <LCDSendTxt>
	#else
		//round up by default
		__ticks_dc = (uint32_t)(ceil(fabs(__tmp)));
	#endif

	__builtin_avr_delay_cycles(__ticks_dc);
     94a:	8f e3       	ldi	r24, 0x3F	; 63
     94c:	92 e4       	ldi	r25, 0x42	; 66
     94e:	af e0       	ldi	r26, 0x0F	; 15
     950:	81 50       	subi	r24, 0x01	; 1
     952:	90 40       	sbci	r25, 0x00	; 0
     954:	a0 40       	sbci	r26, 0x00	; 0
     956:	e1 f7       	brne	.-8      	; 0x950 <CheckResset+0xbe>
     958:	00 c0       	rjmp	.+0      	; 0x95a <CheckResset+0xc8>
     95a:	00 00       	nop

				_delay_ms(5000);

				LCDSendCommand(CLR_DISP);
     95c:	81 e0       	ldi	r24, 0x01	; 1
     95e:	0e 94 19 05 	call	0xa32	; 0xa32 <LCDSendCommand>

				clear_key();
     962:	0e 94 85 00 	call	0x10a	; 0x10a <clear_key>
				LCDSendCommand(CLR_DISP);
				LCDSendTxt("WRONG KEY READ!");
			}else{										// считанные ключи совпали
				char addr = EEPROMADR_STARTADDR + TEXTLEN * EEPROMADRORDER_KEY;
				eeprom_write_block (keyid, addr, KEYIDLEN);
				is_exit = 1;
     966:	81 e0       	ldi	r24, 0x01	; 1
     968:	a3 ec       	ldi	r26, 0xC3	; 195
     96a:	b9 e0       	ldi	r27, 0x09	; 9
     96c:	11 97       	sbiw	r26, 0x01	; 1
     96e:	f1 f7       	brne	.-4      	; 0x96c <CheckResset+0xda>
     970:	00 c0       	rjmp	.+0      	; 0x972 <CheckResset+0xe0>
     972:	00 00       	nop

		LCDSendCommand(CLR_DISP);
		LCDSendTxt("PUT THE KEY!");

		char is_exit = 0;
		while (!is_exit) {
     974:	88 23       	and	r24, r24
     976:	09 f4       	brne	.+2      	; 0x97a <CheckResset+0xe8>
     978:	b9 cf       	rjmp	.-142    	; 0x8ec <CheckResset+0x5a>
     97a:	08 95       	ret

0000097c <main>:


int main()
{

	Port_Init();
     97c:	0e 94 2f 03 	call	0x65e	; 0x65e <Port_Init>
	MatrixKeyInit();
     980:	0e 94 41 07 	call	0xe82	; 0xe82 <MatrixKeyInit>

	LCD_Init();
     984:	0e 94 f3 04 	call	0x9e6	; 0x9e6 <LCD_Init>
	LCDSendCommand(DISP_ON);
     988:	8c e0       	ldi	r24, 0x0C	; 12
     98a:	0e 94 19 05 	call	0xa32	; 0xa32 <LCDSendCommand>
	LCDSendCommand(CLR_DISP);
     98e:	81 e0       	ldi	r24, 0x01	; 1
     990:	0e 94 19 05 	call	0xa32	; 0xa32 <LCDSendCommand>



//	CheckResset();

	GetSavedData();
     994:	0e 94 0b 04 	call	0x816	; 0x816 <GetSavedData>


	LCDSendUnsafeCounteredTxt(menu[menu_pos], TEXTLEN);
     998:	80 91 10 02 	lds	r24, 0x0210
     99c:	90 e0       	ldi	r25, 0x00	; 0
     99e:	a4 e0       	ldi	r26, 0x04	; 4
     9a0:	88 0f       	add	r24, r24
     9a2:	99 1f       	adc	r25, r25
     9a4:	aa 95       	dec	r26
     9a6:	e1 f7       	brne	.-8      	; 0x9a0 <main+0x24>
     9a8:	80 56       	subi	r24, 0x60	; 96
     9aa:	9e 4f       	sbci	r25, 0xFE	; 254
     9ac:	60 e1       	ldi	r22, 0x10	; 16
     9ae:	0e 94 a4 05 	call	0xb48	; 0xb48 <LCDSendUnsafeCounteredTxt>

	SetupTIMER1();
     9b2:	0e 94 43 03 	call	0x686	; 0x686 <SetupTIMER1>
	SetupTIMER0();
     9b6:	0e 94 4e 03 	call	0x69c	; 0x69c <SetupTIMER0>


	// DEBUG
	timer_cur = 86400;
     9ba:	80 e8       	ldi	r24, 0x80	; 128
     9bc:	91 e5       	ldi	r25, 0x51	; 81
     9be:	a1 e0       	ldi	r26, 0x01	; 1
     9c0:	b0 e0       	ldi	r27, 0x00	; 0
     9c2:	80 93 65 02 	sts	0x0265, r24
     9c6:	90 93 66 02 	sts	0x0266, r25
     9ca:	a0 93 67 02 	sts	0x0267, r26
     9ce:	b0 93 68 02 	sts	0x0268, r27
     9d2:	ff cf       	rjmp	.-2      	; 0x9d2 <main+0x56>

000009d4 <E_Pulse>:

/*****************************L C D**************************/

void E_Pulse()
{
	LCDPORT = LCDPORT | 0b00000100;	//set E to high
     9d4:	aa 9a       	sbi	0x15, 2	; 21
     9d6:	89 ef       	ldi	r24, 0xF9	; 249
     9d8:	90 e0       	ldi	r25, 0x00	; 0
     9da:	01 97       	sbiw	r24, 0x01	; 1
     9dc:	f1 f7       	brne	.-4      	; 0x9da <E_Pulse+0x6>
     9de:	00 c0       	rjmp	.+0      	; 0x9e0 <E_Pulse+0xc>
     9e0:	00 00       	nop
	_delay_ms(1) ;				//delay ~110ms
	LCDPORT = LCDPORT & 0b11111011;	//set E to low
     9e2:	aa 98       	cbi	0x15, 2	; 21
}
     9e4:	08 95       	ret

000009e6 <LCD_Init>:

void LCD_Init()
{
     9e6:	1f 93       	push	r17
	//LCD initialization
	//step by step (from Gosho) - from DATASHEET

	LCDPORT = LCDPORT & 0b11111110;
     9e8:	a8 98       	cbi	0x15, 0	; 21
     9ea:	8f e4       	ldi	r24, 0x4F	; 79
     9ec:	93 ec       	ldi	r25, 0xC3	; 195
     9ee:	01 97       	sbiw	r24, 0x01	; 1
     9f0:	f1 f7       	brne	.-4      	; 0x9ee <LCD_Init+0x8>
     9f2:	00 c0       	rjmp	.+0      	; 0x9f4 <LCD_Init+0xe>
     9f4:	00 00       	nop
	
	_delay_ms(200);


	LCDPORT = 0b00110000;						//set D4, D5 port to 1
     9f6:	10 e3       	ldi	r17, 0x30	; 48
     9f8:	15 bb       	out	0x15, r17	; 21
	#else
		//round up by default
		__ticks_dc = (uint32_t)(ceil(fabs(__tmp)));
	#endif

	__builtin_avr_delay_cycles(__ticks_dc);
     9fa:	00 c0       	rjmp	.+0      	; 0x9fc <LCD_Init+0x16>
     9fc:	00 00       	nop
	PORTDELAY
	E_Pulse();								//high->low to E port (pulse)
     9fe:	0e 94 ea 04 	call	0x9d4	; 0x9d4 <E_Pulse>
     a02:	00 c0       	rjmp	.+0      	; 0xa04 <LCD_Init+0x1e>
     a04:	00 00       	nop
	PORTDELAY 

	LCDPORT = 0b00110000;						//set D4, D5 port to 1
     a06:	15 bb       	out	0x15, r17	; 21
     a08:	00 c0       	rjmp	.+0      	; 0xa0a <LCD_Init+0x24>
     a0a:	00 00       	nop
	PORTDELAY
	E_Pulse();								//high->low to E port (pulse)
     a0c:	0e 94 ea 04 	call	0x9d4	; 0x9d4 <E_Pulse>
     a10:	00 c0       	rjmp	.+0      	; 0xa12 <LCD_Init+0x2c>
     a12:	00 00       	nop
	PORTDELAY

	LCDPORT = 0b00110000;						//set D4, D5 port to 1
     a14:	15 bb       	out	0x15, r17	; 21
     a16:	00 c0       	rjmp	.+0      	; 0xa18 <LCD_Init+0x32>
     a18:	00 00       	nop
	PORTDELAY
	E_Pulse();								//high->low to E port (pulse)
     a1a:	0e 94 ea 04 	call	0x9d4	; 0x9d4 <E_Pulse>
     a1e:	00 c0       	rjmp	.+0      	; 0xa20 <LCD_Init+0x3a>
     a20:	00 00       	nop
	PORTDELAY

	LCDPORT = 0b00100000;						//set D4 to 0, D5 port to 1
     a22:	80 e2       	ldi	r24, 0x20	; 32
     a24:	85 bb       	out	0x15, r24	; 21
     a26:	00 c0       	rjmp	.+0      	; 0xa28 <LCD_Init+0x42>
     a28:	00 00       	nop
	PORTDELAY
	E_Pulse();								//high->low to E port (pulse)
     a2a:	0e 94 ea 04 	call	0x9d4	; 0x9d4 <E_Pulse>
}
     a2e:	1f 91       	pop	r17
     a30:	08 95       	ret

00000a32 <LCDSendCommand>:

void LCDSendCommand(unsigned char a)
{
     a32:	df 93       	push	r29
     a34:	cf 93       	push	r28
     a36:	0f 92       	push	r0
     a38:	cd b7       	in	r28, 0x3d	; 61
     a3a:	de b7       	in	r29, 0x3e	; 62
	unsigned char data = 0b00001111 | a;					//get high 4 bits
	LCDPORT = (LCDPORT | 0b11110000) & data;	//set D4-D7
     a3c:	25 b3       	in	r18, 0x15	; 21
	E_Pulse();								//high->low to E port (pulse)
}

void LCDSendCommand(unsigned char a)
{
	unsigned char data = 0b00001111 | a;					//get high 4 bits
     a3e:	98 2f       	mov	r25, r24
     a40:	9f 60       	ori	r25, 0x0F	; 15
	LCDPORT = (LCDPORT | 0b11110000) & data;	//set D4-D7
     a42:	20 6f       	ori	r18, 0xF0	; 240
     a44:	92 23       	and	r25, r18
     a46:	95 bb       	out	0x15, r25	; 21
     a48:	00 c0       	rjmp	.+0      	; 0xa4a <LCDSendCommand+0x18>
     a4a:	00 00       	nop
	PORTDELAY
	LCDPORT = LCDPORT & 0b11111110;				//set RS port to 0
     a4c:	a8 98       	cbi	0x15, 0	; 21
     a4e:	00 c0       	rjmp	.+0      	; 0xa50 <LCDSendCommand+0x1e>
     a50:	00 00       	nop
	PORTDELAY
	E_Pulse(); 
     a52:	89 83       	std	Y+1, r24	; 0x01
     a54:	0e 94 ea 04 	call	0x9d4	; 0x9d4 <E_Pulse>
     a58:	96 ea       	ldi	r25, 0xA6	; 166
     a5a:	9a 95       	dec	r25
     a5c:	f1 f7       	brne	.-4      	; 0xa5a <LCDSendCommand+0x28>
     a5e:	00 c0       	rjmp	.+0      	; 0xa60 <LCDSendCommand+0x2e>
	
	_delay_us(500);                             //pulse to set D4-D7 bits

	data = a<<4;							//get low 4 bits
	LCDPORT = (LCDPORT & 0b00001111) | data;	//set D4-D7
     a60:	95 b3       	in	r25, 0x15	; 21
	PORTDELAY
	E_Pulse(); 
	
	_delay_us(500);                             //pulse to set D4-D7 bits

	data = a<<4;							//get low 4 bits
     a62:	89 81       	ldd	r24, Y+1	; 0x01
     a64:	82 95       	swap	r24
     a66:	80 7f       	andi	r24, 0xF0	; 240
	LCDPORT = (LCDPORT & 0b00001111) | data;	//set D4-D7
     a68:	9f 70       	andi	r25, 0x0F	; 15
     a6a:	89 2b       	or	r24, r25
     a6c:	85 bb       	out	0x15, r24	; 21
     a6e:	00 c0       	rjmp	.+0      	; 0xa70 <LCDSendCommand+0x3e>
     a70:	00 00       	nop
	PORTDELAY
	LCDPORT = LCDPORT & 0b11111110;				//set RS port to 0 -> display set to command mode
     a72:	a8 98       	cbi	0x15, 0	; 21
     a74:	00 c0       	rjmp	.+0      	; 0xa76 <LCDSendCommand+0x44>
     a76:	00 00       	nop
	PORTDELAY
	E_Pulse();                              //pulse to set d4-d7 bits
     a78:	0e 94 ea 04 	call	0x9d4	; 0x9d4 <E_Pulse>
     a7c:	e6 ea       	ldi	r30, 0xA6	; 166
     a7e:	ea 95       	dec	r30
     a80:	f1 f7       	brne	.-4      	; 0xa7e <LCDSendCommand+0x4c>
     a82:	00 c0       	rjmp	.+0      	; 0xa84 <LCDSendCommand+0x52>

	_delay_us(500);

}
     a84:	0f 90       	pop	r0
     a86:	cf 91       	pop	r28
     a88:	df 91       	pop	r29
     a8a:	08 95       	ret

00000a8c <LCDSendChar>:

void LCDSendChar(unsigned char a)
{
     a8c:	df 93       	push	r29
     a8e:	cf 93       	push	r28
     a90:	0f 92       	push	r0
     a92:	cd b7       	in	r28, 0x3d	; 61
     a94:	de b7       	in	r29, 0x3e	; 62
	unsigned char data = 0b00001111 | a;					//get high 4 bits
	LCDPORT = (LCDPORT | 0b11110000) & data;	//set D4-D7
     a96:	25 b3       	in	r18, 0x15	; 21

}

void LCDSendChar(unsigned char a)
{
	unsigned char data = 0b00001111 | a;					//get high 4 bits
     a98:	98 2f       	mov	r25, r24
     a9a:	9f 60       	ori	r25, 0x0F	; 15
	LCDPORT = (LCDPORT | 0b11110000) & data;	//set D4-D7
     a9c:	20 6f       	ori	r18, 0xF0	; 240
     a9e:	92 23       	and	r25, r18
     aa0:	95 bb       	out	0x15, r25	; 21
     aa2:	00 c0       	rjmp	.+0      	; 0xaa4 <LCDSendChar+0x18>
     aa4:	00 00       	nop
	PORTDELAY
	LCDPORT = LCDPORT | 0b00000001;				//set RS port to 1
     aa6:	a8 9a       	sbi	0x15, 0	; 21
     aa8:	00 c0       	rjmp	.+0      	; 0xaaa <LCDSendChar+0x1e>
     aaa:	00 00       	nop
	PORTDELAY
	E_Pulse();                              //pulse to set D4-D7 bits
     aac:	89 83       	std	Y+1, r24	; 0x01
     aae:	0e 94 ea 04 	call	0x9d4	; 0x9d4 <E_Pulse>
     ab2:	96 ea       	ldi	r25, 0xA6	; 166
     ab4:	9a 95       	dec	r25
     ab6:	f1 f7       	brne	.-4      	; 0xab4 <LCDSendChar+0x28>
     ab8:	00 c0       	rjmp	.+0      	; 0xaba <LCDSendChar+0x2e>

	_delay_us(500);

	data = a<<4;							//get low 4 bits
	LCDPORT = (LCDPORT & 0b00001111) | data;	//clear D4-D7
     aba:	95 b3       	in	r25, 0x15	; 21
	PORTDELAY
	E_Pulse();                              //pulse to set D4-D7 bits

	_delay_us(500);

	data = a<<4;							//get low 4 bits
     abc:	89 81       	ldd	r24, Y+1	; 0x01
     abe:	82 95       	swap	r24
     ac0:	80 7f       	andi	r24, 0xF0	; 240
	LCDPORT = (LCDPORT & 0b00001111) | data;	//clear D4-D7
     ac2:	9f 70       	andi	r25, 0x0F	; 15
     ac4:	89 2b       	or	r24, r25
     ac6:	85 bb       	out	0x15, r24	; 21
     ac8:	00 c0       	rjmp	.+0      	; 0xaca <LCDSendChar+0x3e>
     aca:	00 00       	nop
	PORTDELAY
	LCDPORT = LCDPORT | 0b00000001;				//set RS port to 1 -> display set to command mode
     acc:	a8 9a       	sbi	0x15, 0	; 21
     ace:	00 c0       	rjmp	.+0      	; 0xad0 <LCDSendChar+0x44>
     ad0:	00 00       	nop
	PORTDELAY
	E_Pulse();                              //pulse to set d4-d7 bits
     ad2:	0e 94 ea 04 	call	0x9d4	; 0x9d4 <E_Pulse>
     ad6:	e6 ea       	ldi	r30, 0xA6	; 166
     ad8:	ea 95       	dec	r30
     ada:	f1 f7       	brne	.-4      	; 0xad8 <LCDSendChar+0x4c>
     adc:	00 c0       	rjmp	.+0      	; 0xade <LCDSendChar+0x52>

	_delay_us(500);
}
     ade:	0f 90       	pop	r0
     ae0:	cf 91       	pop	r28
     ae2:	df 91       	pop	r29
     ae4:	08 95       	ret

00000ae6 <LCDSendTxt>:

void LCDSendTxt(char* a)
{
     ae6:	cf 92       	push	r12
     ae8:	df 92       	push	r13
     aea:	ff 92       	push	r15
     aec:	0f 93       	push	r16
     aee:	1f 93       	push	r17
     af0:	df 93       	push	r29
     af2:	cf 93       	push	r28
     af4:	0f 92       	push	r0
     af6:	cd b7       	in	r28, 0x3d	; 61
     af8:	de b7       	in	r29, 0x3e	; 62
     afa:	f8 2e       	mov	r15, r24

	//_delay_ms(1);

	int Temp;
	for(Temp=0; Temp < strlen(a); Temp++)
     afc:	0f 2d       	mov	r16, r15
     afe:	19 2f       	mov	r17, r25
     b00:	cc 24       	eor	r12, r12
     b02:	dd 24       	eor	r13, r13
     b04:	0c c0       	rjmp	.+24     	; 0xb1e <LCDSendTxt+0x38>
  {
    LCDSendChar(a[Temp]);
     b06:	f8 01       	movw	r30, r16
     b08:	81 91       	ld	r24, Z+
     b0a:	8f 01       	movw	r16, r30
     b0c:	99 83       	std	Y+1, r25	; 0x01
     b0e:	0e 94 46 05 	call	0xa8c	; 0xa8c <LCDSendChar>
     b12:	00 c0       	rjmp	.+0      	; 0xb14 <LCDSendTxt+0x2e>
     b14:	00 00       	nop
{

	//_delay_ms(1);

	int Temp;
	for(Temp=0; Temp < strlen(a); Temp++)
     b16:	08 94       	sec
     b18:	c1 1c       	adc	r12, r1
     b1a:	d1 1c       	adc	r13, r1
     b1c:	99 81       	ldd	r25, Y+1	; 0x01
     b1e:	af 2d       	mov	r26, r15
     b20:	b9 2f       	mov	r27, r25
     b22:	fd 01       	movw	r30, r26
     b24:	01 90       	ld	r0, Z+
     b26:	00 20       	and	r0, r0
     b28:	e9 f7       	brne	.-6      	; 0xb24 <LCDSendTxt+0x3e>
     b2a:	31 97       	sbiw	r30, 0x01	; 1
     b2c:	ea 1b       	sub	r30, r26
     b2e:	fb 0b       	sbc	r31, r27
     b30:	ce 16       	cp	r12, r30
     b32:	df 06       	cpc	r13, r31
     b34:	40 f3       	brcs	.-48     	; 0xb06 <LCDSendTxt+0x20>
  {
    LCDSendChar(a[Temp]);
	TEXTDELAY
  }
}
     b36:	0f 90       	pop	r0
     b38:	cf 91       	pop	r28
     b3a:	df 91       	pop	r29
     b3c:	1f 91       	pop	r17
     b3e:	0f 91       	pop	r16
     b40:	ff 90       	pop	r15
     b42:	df 90       	pop	r13
     b44:	cf 90       	pop	r12
     b46:	08 95       	ret

00000b48 <LCDSendUnsafeCounteredTxt>:

void LCDSendUnsafeCounteredTxt(char* a, char count)
{
     b48:	ef 92       	push	r14
     b4a:	ff 92       	push	r15
     b4c:	0f 93       	push	r16
     b4e:	1f 93       	push	r17
     b50:	cf 93       	push	r28
     b52:	df 93       	push	r29

	//_delay_ms(1);

	int Temp;
	for(Temp=0; Temp < count; Temp++)
     b54:	08 2f       	mov	r16, r24
     b56:	19 2f       	mov	r17, r25
     b58:	c0 e0       	ldi	r28, 0x00	; 0
     b5a:	d0 e0       	ldi	r29, 0x00	; 0
     b5c:	e6 2e       	mov	r14, r22
     b5e:	ff 24       	eor	r15, r15
     b60:	08 c0       	rjmp	.+16     	; 0xb72 <LCDSendUnsafeCounteredTxt+0x2a>
  {
    LCDSendChar(a[Temp]);
     b62:	f8 01       	movw	r30, r16
     b64:	81 91       	ld	r24, Z+
     b66:	8f 01       	movw	r16, r30
     b68:	0e 94 46 05 	call	0xa8c	; 0xa8c <LCDSendChar>
     b6c:	00 c0       	rjmp	.+0      	; 0xb6e <LCDSendUnsafeCounteredTxt+0x26>
     b6e:	00 00       	nop
{

	//_delay_ms(1);

	int Temp;
	for(Temp=0; Temp < count; Temp++)
     b70:	21 96       	adiw	r28, 0x01	; 1
     b72:	ce 15       	cp	r28, r14
     b74:	df 05       	cpc	r29, r15
     b76:	ac f3       	brlt	.-22     	; 0xb62 <LCDSendUnsafeCounteredTxt+0x1a>
  {
    LCDSendChar(a[Temp]);
	TEXTDELAY
  }
}
     b78:	df 91       	pop	r29
     b7a:	cf 91       	pop	r28
     b7c:	1f 91       	pop	r17
     b7e:	0f 91       	pop	r16
     b80:	ff 90       	pop	r15
     b82:	ef 90       	pop	r14
     b84:	08 95       	ret

00000b86 <LCDSendInt>:


void LCDSendInt(long a)
{
     b86:	4f 92       	push	r4
     b88:	5f 92       	push	r5
     b8a:	6f 92       	push	r6
     b8c:	7f 92       	push	r7
     b8e:	8f 92       	push	r8
     b90:	9f 92       	push	r9
     b92:	af 92       	push	r10
     b94:	bf 92       	push	r11
     b96:	cf 92       	push	r12
     b98:	df 92       	push	r13
     b9a:	ef 92       	push	r14
     b9c:	ff 92       	push	r15
     b9e:	1f 93       	push	r17
     ba0:	df 93       	push	r29
     ba2:	cf 93       	push	r28
     ba4:	cd b7       	in	r28, 0x3d	; 61
     ba6:	de b7       	in	r29, 0x3e	; 62
     ba8:	a8 97       	sbiw	r28, 0x28	; 40
     baa:	0f b6       	in	r0, 0x3f	; 63
     bac:	f8 94       	cli
     bae:	de bf       	out	0x3e, r29	; 62
     bb0:	0f be       	out	0x3f, r0	; 63
     bb2:	cd bf       	out	0x3d, r28	; 61
     bb4:	6b 01       	movw	r12, r22
     bb6:	7c 01       	movw	r14, r24
	int C[20];
	unsigned char Temp=0, NumLen = 0;
	if (a < 0)
     bb8:	97 ff       	sbrs	r25, 7
     bba:	0b c0       	rjmp	.+22     	; 0xbd2 <LCDSendInt+0x4c>
	{
		LCDSendChar('-');
     bbc:	8d e2       	ldi	r24, 0x2D	; 45
     bbe:	0e 94 46 05 	call	0xa8c	; 0xa8c <LCDSendChar>
		a = -a;
     bc2:	f0 94       	com	r15
     bc4:	e0 94       	com	r14
     bc6:	d0 94       	com	r13
     bc8:	c0 94       	com	r12
     bca:	c1 1c       	adc	r12, r1
     bcc:	d1 1c       	adc	r13, r1
     bce:	e1 1c       	adc	r14, r1
     bd0:	f1 1c       	adc	r15, r1
  }
}


void LCDSendInt(long a)
{
     bd2:	10 e0       	ldi	r17, 0x00	; 0
		a = -a;
	}
	do
	{	
		Temp++;
		C[Temp] = a % 10;
     bd4:	2e 01       	movw	r4, r28
     bd6:	08 94       	sec
     bd8:	41 1c       	adc	r4, r1
     bda:	51 1c       	adc	r5, r1
     bdc:	2a e0       	ldi	r18, 0x0A	; 10
     bde:	62 2e       	mov	r6, r18
     be0:	71 2c       	mov	r7, r1
     be2:	81 2c       	mov	r8, r1
     be4:	91 2c       	mov	r9, r1
		LCDSendChar('-');
		a = -a;
	}
	do
	{	
		Temp++;
     be6:	1f 5f       	subi	r17, 0xFF	; 255
		C[Temp] = a % 10;
     be8:	a1 2e       	mov	r10, r17
     bea:	bb 24       	eor	r11, r11
     bec:	aa 0c       	add	r10, r10
     bee:	bb 1c       	adc	r11, r11
     bf0:	a4 0c       	add	r10, r4
     bf2:	b5 1c       	adc	r11, r5
     bf4:	c7 01       	movw	r24, r14
     bf6:	b6 01       	movw	r22, r12
     bf8:	a4 01       	movw	r20, r8
     bfa:	93 01       	movw	r18, r6
     bfc:	0e 94 5f 07 	call	0xebe	; 0xebe <__divmodsi4>
     c00:	f5 01       	movw	r30, r10
     c02:	71 83       	std	Z+1, r23	; 0x01
     c04:	60 83       	st	Z, r22
		a = a/10;
     c06:	69 01       	movw	r12, r18
     c08:	7a 01       	movw	r14, r20
	}
	while (a);
     c0a:	c1 14       	cp	r12, r1
     c0c:	d1 04       	cpc	r13, r1
     c0e:	e1 04       	cpc	r14, r1
     c10:	f1 04       	cpc	r15, r1
     c12:	49 f7       	brne	.-46     	; 0xbe6 <LCDSendInt+0x60>
     c14:	0c c0       	rjmp	.+24     	; 0xc2e <LCDSendInt+0xa8>
	NumLen = Temp;
	for (Temp = NumLen; Temp>0; Temp--) LCDSendChar(C[Temp] + 48);
     c16:	e1 2f       	mov	r30, r17
     c18:	f0 e0       	ldi	r31, 0x00	; 0
     c1a:	ee 0f       	add	r30, r30
     c1c:	ff 1f       	adc	r31, r31
     c1e:	ec 0d       	add	r30, r12
     c20:	fd 1d       	adc	r31, r13
     c22:	80 81       	ld	r24, Z
     c24:	80 5d       	subi	r24, 0xD0	; 208
     c26:	0e 94 46 05 	call	0xa8c	; 0xa8c <LCDSendChar>
     c2a:	11 50       	subi	r17, 0x01	; 1
     c2c:	04 c0       	rjmp	.+8      	; 0xc36 <LCDSendInt+0xb0>
     c2e:	6e 01       	movw	r12, r28
     c30:	08 94       	sec
     c32:	c1 1c       	adc	r12, r1
     c34:	d1 1c       	adc	r13, r1
     c36:	11 23       	and	r17, r17
     c38:	71 f7       	brne	.-36     	; 0xc16 <LCDSendInt+0x90>
}
     c3a:	a8 96       	adiw	r28, 0x28	; 40
     c3c:	0f b6       	in	r0, 0x3f	; 63
     c3e:	f8 94       	cli
     c40:	de bf       	out	0x3e, r29	; 62
     c42:	0f be       	out	0x3f, r0	; 63
     c44:	cd bf       	out	0x3d, r28	; 61
     c46:	cf 91       	pop	r28
     c48:	df 91       	pop	r29
     c4a:	1f 91       	pop	r17
     c4c:	ff 90       	pop	r15
     c4e:	ef 90       	pop	r14
     c50:	df 90       	pop	r13
     c52:	cf 90       	pop	r12
     c54:	bf 90       	pop	r11
     c56:	af 90       	pop	r10
     c58:	9f 90       	pop	r9
     c5a:	8f 90       	pop	r8
     c5c:	7f 90       	pop	r7
     c5e:	6f 90       	pop	r6
     c60:	5f 90       	pop	r5
     c62:	4f 90       	pop	r4
     c64:	08 95       	ret

00000c66 <LCDSendInt_Old>:

void LCDSendInt_Old(int a)
{
     c66:	1f 93       	push	r17
  int h = 0;
  int l = 0;

  l = a%10;
  h = a/10;
     c68:	6a e0       	ldi	r22, 0x0A	; 10
     c6a:	70 e0       	ldi	r23, 0x00	; 0
     c6c:	0e 94 4c 07 	call	0xe98	; 0xe98 <__divmodhi4>
     c70:	18 2f       	mov	r17, r24

  LCDSendChar(h+48);
     c72:	86 2f       	mov	r24, r22
     c74:	80 5d       	subi	r24, 0xD0	; 208
     c76:	0e 94 46 05 	call	0xa8c	; 0xa8c <LCDSendChar>
  LCDSendChar(l+48);
     c7a:	81 2f       	mov	r24, r17
     c7c:	80 5d       	subi	r24, 0xD0	; 208
     c7e:	0e 94 46 05 	call	0xa8c	; 0xa8c <LCDSendChar>
}
     c82:	1f 91       	pop	r17
     c84:	08 95       	ret

00000c86 <SmartUp>:

void SmartUp(void)
{
	int Temp;
	for(Temp=0; Temp<1; Temp++) LCDSendCommand(CUR_UP);
     c86:	80 e8       	ldi	r24, 0x80	; 128
     c88:	0e 94 19 05 	call	0xa32	; 0xa32 <LCDSendCommand>
}
     c8c:	08 95       	ret

00000c8e <SmartDown>:

void SmartDown(void)
{
     c8e:	cf 93       	push	r28
     c90:	df 93       	push	r29
     c92:	c8 e2       	ldi	r28, 0x28	; 40
     c94:	d0 e0       	ldi	r29, 0x00	; 0
	int Temp;
	for(Temp=0; Temp<40; Temp++) LCDSendCommand(CUR_DOWN);
     c96:	80 ec       	ldi	r24, 0xC0	; 192
     c98:	0e 94 19 05 	call	0xa32	; 0xa32 <LCDSendCommand>
     c9c:	21 97       	sbiw	r28, 0x01	; 1
     c9e:	d9 f7       	brne	.-10     	; 0xc96 <SmartDown+0x8>
}
     ca0:	df 91       	pop	r29
     ca2:	cf 91       	pop	r28
     ca4:	08 95       	ret

00000ca6 <Light>:

void Light(short a)
{
  if(a == 1)
     ca6:	81 30       	cpi	r24, 0x01	; 1
     ca8:	91 05       	cpc	r25, r1
     caa:	29 f4       	brne	.+10     	; 0xcb6 <Light+0x10>
  {
	LCDPORT = LCDPORT | 0b00100000;
     cac:	ad 9a       	sbi	0x15, 5	; 21
	DDRC = LCDPORT | 0b00100000;
     cae:	85 b3       	in	r24, 0x15	; 21
     cb0:	80 62       	ori	r24, 0x20	; 32
     cb2:	84 bb       	out	0x14, r24	; 20
     cb4:	08 95       	ret

    //IO0SET_bit.P0_25 = 1;
    //IO0DIR_bit.P0_25 = 1;
  }
  if(a == 0)
     cb6:	00 97       	sbiw	r24, 0x00	; 0
     cb8:	11 f4       	brne	.+4      	; 0xcbe <Light+0x18>
  {
    LCDPORT = LCDPORT & 0b11011111;
     cba:	ad 98       	cbi	0x15, 5	; 21
    DDRC = DDRC & 0b11011111;
     cbc:	a5 98       	cbi	0x14, 5	; 20
     cbe:	08 95       	ret

00000cc0 <send_ds1990_command>:
     cc0:	f8 94       	cli
     cc2:	10 92 87 02 	sts	0x0287, r1
     cc6:	26 c0       	rjmp	.+76     	; 0xd14 <send_ds1990_command+0x54>
     cc8:	98 2f       	mov	r25, r24
     cca:	97 95       	ror	r25
     ccc:	99 27       	eor	r25, r25
     cce:	97 95       	ror	r25
     cd0:	86 95       	lsr	r24
     cd2:	99 23       	and	r25, r25
     cd4:	79 f4       	brne	.+30     	; 0xcf4 <send_ds1990_command+0x34>
     cd6:	8f 98       	cbi	0x11, 7	; 17
     cd8:	97 98       	cbi	0x12, 7	; 18
     cda:	95 e0       	ldi	r25, 0x05	; 5
     cdc:	9a 95       	dec	r25
     cde:	f1 f7       	brne	.-4      	; 0xcdc <send_ds1990_command+0x1c>
     ce0:	8f 9a       	sbi	0x11, 7	; 17
     ce2:	97 98       	cbi	0x12, 7	; 18
     ce4:	91 e2       	ldi	r25, 0x21	; 33
     ce6:	9a 95       	dec	r25
     ce8:	f1 f7       	brne	.-4      	; 0xce6 <send_ds1990_command+0x26>
     cea:	00 00       	nop
     cec:	8f 9a       	sbi	0x11, 7	; 17
     cee:	97 9a       	sbi	0x12, 7	; 18
     cf0:	00 c0       	rjmp	.+0      	; 0xcf2 <send_ds1990_command+0x32>
     cf2:	0b c0       	rjmp	.+22     	; 0xd0a <send_ds1990_command+0x4a>
     cf4:	8f 98       	cbi	0x11, 7	; 17
     cf6:	97 98       	cbi	0x12, 7	; 18
     cf8:	95 e0       	ldi	r25, 0x05	; 5
     cfa:	9a 95       	dec	r25
     cfc:	f1 f7       	brne	.-4      	; 0xcfa <send_ds1990_command+0x3a>
     cfe:	8f 9a       	sbi	0x11, 7	; 17
     d00:	97 9a       	sbi	0x12, 7	; 18
     d02:	91 e2       	ldi	r25, 0x21	; 33
     d04:	9a 95       	dec	r25
     d06:	f1 f7       	brne	.-4      	; 0xd04 <send_ds1990_command+0x44>
     d08:	00 00       	nop
     d0a:	90 91 87 02 	lds	r25, 0x0287
     d0e:	9f 5f       	subi	r25, 0xFF	; 255
     d10:	90 93 87 02 	sts	0x0287, r25
     d14:	90 91 87 02 	lds	r25, 0x0287
     d18:	98 30       	cpi	r25, 0x08	; 8
     d1a:	b0 f2       	brcs	.-84     	; 0xcc8 <send_ds1990_command+0x8>
     d1c:	78 94       	sei
     d1e:	08 95       	ret

00000d20 <check_key_id>:
     d20:	ef 92       	push	r14
     d22:	ff 92       	push	r15
     d24:	0f 93       	push	r16
     d26:	1f 93       	push	r17
     d28:	cf 93       	push	r28
     d2a:	df 93       	push	r29
     d2c:	28 2f       	mov	r18, r24
     d2e:	39 2f       	mov	r19, r25
     d30:	d9 01       	movw	r26, r18
     d32:	80 e0       	ldi	r24, 0x00	; 0
     d34:	90 e0       	ldi	r25, 0x00	; 0
     d36:	70 e0       	ldi	r23, 0x00	; 0
     d38:	41 e0       	ldi	r20, 0x01	; 1
     d3a:	50 e0       	ldi	r21, 0x00	; 0
     d3c:	12 c0       	rjmp	.+36     	; 0xd62 <check_key_id+0x42>
     d3e:	01 91       	ld	r16, Z+
     d40:	00 23       	and	r16, r16
     d42:	41 f0       	breq	.+16     	; 0xd54 <check_key_id+0x34>
     d44:	ea 01       	movw	r28, r20
     d46:	02 2e       	mov	r0, r18
     d48:	02 c0       	rjmp	.+4      	; 0xd4e <check_key_id+0x2e>
     d4a:	cc 0f       	add	r28, r28
     d4c:	dd 1f       	adc	r29, r29
     d4e:	0a 94       	dec	r0
     d50:	e2 f7       	brpl	.-8      	; 0xd4a <check_key_id+0x2a>
     d52:	1c 2b       	or	r17, r28
     d54:	2f 5f       	subi	r18, 0xFF	; 255
     d56:	3f 4f       	sbci	r19, 0xFF	; 255
     d58:	28 30       	cpi	r18, 0x08	; 8
     d5a:	31 05       	cpc	r19, r1
     d5c:	81 f7       	brne	.-32     	; 0xd3e <check_key_id+0x1e>
     d5e:	1d 93       	st	X+, r17
     d60:	01 96       	adiw	r24, 0x01	; 1
     d62:	86 17       	cp	r24, r22
     d64:	97 07       	cpc	r25, r23
     d66:	64 f4       	brge	.+24     	; 0xd80 <check_key_id+0x60>
     d68:	fc 01       	movw	r30, r24
     d6a:	23 e0       	ldi	r18, 0x03	; 3
     d6c:	ee 0f       	add	r30, r30
     d6e:	ff 1f       	adc	r31, r31
     d70:	2a 95       	dec	r18
     d72:	e1 f7       	brne	.-8      	; 0xd6c <check_key_id+0x4c>
     d74:	e8 57       	subi	r30, 0x78	; 120
     d76:	fd 4f       	sbci	r31, 0xFD	; 253
     d78:	20 e0       	ldi	r18, 0x00	; 0
     d7a:	30 e0       	ldi	r19, 0x00	; 0
     d7c:	10 e0       	ldi	r17, 0x00	; 0
     d7e:	df cf       	rjmp	.-66     	; 0xd3e <check_key_id+0x1e>
     d80:	81 e0       	ldi	r24, 0x01	; 1
     d82:	df 91       	pop	r29
     d84:	cf 91       	pop	r28
     d86:	1f 91       	pop	r17
     d88:	0f 91       	pop	r16
     d8a:	ff 90       	pop	r15
     d8c:	ef 90       	pop	r14
     d8e:	08 95       	ret

00000d90 <read_ds1990>:
     d90:	f8 94       	cli
     d92:	10 92 87 02 	sts	0x0287, r1
     d96:	41 e0       	ldi	r20, 0x01	; 1
     d98:	39 c0       	rjmp	.+114    	; 0xe0c <read_ds1990+0x7c>
     d9a:	10 92 86 02 	sts	0x0286, r1
     d9e:	2d c0       	rjmp	.+90     	; 0xdfa <read_ds1990+0x6a>
     da0:	8f 9a       	sbi	0x11, 7	; 17
     da2:	97 98       	cbi	0x12, 7	; 18
     da4:	00 c0       	rjmp	.+0      	; 0xda6 <read_ds1990+0x16>
     da6:	00 00       	nop
     da8:	97 98       	cbi	0x12, 7	; 18
     daa:	8f 98       	cbi	0x11, 7	; 17
     dac:	32 e0       	ldi	r19, 0x02	; 2
     dae:	3a 95       	dec	r19
     db0:	f1 f7       	brne	.-4      	; 0xdae <read_ds1990+0x1e>
     db2:	30 e0       	ldi	r19, 0x00	; 0
     db4:	e0 91 87 02 	lds	r30, 0x0287
     db8:	87 9b       	sbis	0x10, 7	; 16
     dba:	0c c0       	rjmp	.+24     	; 0xdd4 <read_ds1990+0x44>
     dbc:	f0 e0       	ldi	r31, 0x00	; 0
     dbe:	73 e0       	ldi	r23, 0x03	; 3
     dc0:	ee 0f       	add	r30, r30
     dc2:	ff 1f       	adc	r31, r31
     dc4:	7a 95       	dec	r23
     dc6:	e1 f7       	brne	.-8      	; 0xdc0 <read_ds1990+0x30>
     dc8:	e2 0f       	add	r30, r18
     dca:	f3 1f       	adc	r31, r19
     dcc:	e8 57       	subi	r30, 0x78	; 120
     dce:	fd 4f       	sbci	r31, 0xFD	; 253
     dd0:	40 83       	st	Z, r20
     dd2:	0b c0       	rjmp	.+22     	; 0xdea <read_ds1990+0x5a>
     dd4:	f0 e0       	ldi	r31, 0x00	; 0
     dd6:	53 e0       	ldi	r21, 0x03	; 3
     dd8:	ee 0f       	add	r30, r30
     dda:	ff 1f       	adc	r31, r31
     ddc:	5a 95       	dec	r21
     dde:	e1 f7       	brne	.-8      	; 0xdd8 <read_ds1990+0x48>
     de0:	e2 0f       	add	r30, r18
     de2:	f3 1f       	adc	r31, r19
     de4:	e8 57       	subi	r30, 0x78	; 120
     de6:	fd 4f       	sbci	r31, 0xFD	; 253
     de8:	10 82       	st	Z, r1
     dea:	28 e2       	ldi	r18, 0x28	; 40
     dec:	2a 95       	dec	r18
     dee:	f1 f7       	brne	.-4      	; 0xdec <read_ds1990+0x5c>
     df0:	20 91 86 02 	lds	r18, 0x0286
     df4:	2f 5f       	subi	r18, 0xFF	; 255
     df6:	20 93 86 02 	sts	0x0286, r18
     dfa:	20 91 86 02 	lds	r18, 0x0286
     dfe:	28 30       	cpi	r18, 0x08	; 8
     e00:	78 f2       	brcs	.-98     	; 0xda0 <read_ds1990+0x10>
     e02:	20 91 87 02 	lds	r18, 0x0287
     e06:	2f 5f       	subi	r18, 0xFF	; 255
     e08:	20 93 87 02 	sts	0x0287, r18
     e0c:	20 91 87 02 	lds	r18, 0x0287
     e10:	28 30       	cpi	r18, 0x08	; 8
     e12:	18 f2       	brcs	.-122    	; 0xd9a <read_ds1990+0xa>
     e14:	78 94       	sei
     e16:	0e 94 90 06 	call	0xd20	; 0xd20 <check_key_id>
     e1a:	08 95       	ret

00000e1c <reset_ds1990>:
     e1c:	0f 93       	push	r16
     e1e:	1f 93       	push	r17
     e20:	df 93       	push	r29
     e22:	cf 93       	push	r28
     e24:	0f 92       	push	r0
     e26:	cd b7       	in	r28, 0x3d	; 61
     e28:	de b7       	in	r29, 0x3e	; 62
     e2a:	8c 01       	movw	r16, r24
     e2c:	8f 9a       	sbi	0x11, 7	; 17
     e2e:	97 98       	cbi	0x12, 7	; 18
     e30:	f8 94       	cli
     e32:	81 ec       	ldi	r24, 0xC1	; 193
     e34:	8a 95       	dec	r24
     e36:	f1 f7       	brne	.-4      	; 0xe34 <reset_ds1990+0x18>
     e38:	00 00       	nop
     e3a:	8f 98       	cbi	0x11, 7	; 17
     e3c:	e7 e1       	ldi	r30, 0x17	; 23
     e3e:	ea 95       	dec	r30
     e40:	f1 f7       	brne	.-4      	; 0xe3e <reset_ds1990+0x22>
     e42:	00 00       	nop
     e44:	87 9b       	sbis	0x10, 7	; 16
     e46:	07 c0       	rjmp	.+14     	; 0xe56 <reset_ds1990+0x3a>
     e48:	f8 e8       	ldi	r31, 0x88	; 136
     e4a:	fa 95       	dec	r31
     e4c:	f1 f7       	brne	.-4      	; 0xe4a <reset_ds1990+0x2e>
     e4e:	00 c0       	rjmp	.+0      	; 0xe50 <reset_ds1990+0x34>
     e50:	78 94       	sei
     e52:	80 e0       	ldi	r24, 0x00	; 0
     e54:	10 c0       	rjmp	.+32     	; 0xe76 <reset_ds1990+0x5a>
     e56:	88 e8       	ldi	r24, 0x88	; 136
     e58:	8a 95       	dec	r24
     e5a:	f1 f7       	brne	.-4      	; 0xe58 <reset_ds1990+0x3c>
     e5c:	00 c0       	rjmp	.+0      	; 0xe5e <reset_ds1990+0x42>
     e5e:	78 94       	sei
     e60:	83 e3       	ldi	r24, 0x33	; 51
     e62:	90 e0       	ldi	r25, 0x00	; 0
     e64:	69 83       	std	Y+1, r22	; 0x01
     e66:	0e 94 60 06 	call	0xcc0	; 0xcc0 <send_ds1990_command>
     e6a:	c8 01       	movw	r24, r16
     e6c:	69 81       	ldd	r22, Y+1	; 0x01
     e6e:	70 e0       	ldi	r23, 0x00	; 0
     e70:	0e 94 c8 06 	call	0xd90	; 0xd90 <read_ds1990>
     e74:	81 e0       	ldi	r24, 0x01	; 1
     e76:	0f 90       	pop	r0
     e78:	cf 91       	pop	r28
     e7a:	df 91       	pop	r29
     e7c:	1f 91       	pop	r17
     e7e:	0f 91       	pop	r16
     e80:	08 95       	ret

00000e82 <MatrixKeyInit>:
#define F_CPU 1000000UL  // 16 MHz
#include <util/delay.h>

void MatrixKeyInit()
{
	MPORT = SCANMASK;
     e82:	e2 e6       	ldi	r30, 0x62	; 98
     e84:	f0 e0       	ldi	r31, 0x00	; 0
     e86:	8f e0       	ldi	r24, 0x0F	; 15
     e88:	80 83       	st	Z, r24
	//MDDRPORT = 0b11110000;
	PORTF = 0b00001111;
     e8a:	80 83       	st	Z, r24
	DDRF  = 0b11110000;
     e8c:	80 ef       	ldi	r24, 0xF0	; 240
     e8e:	80 93 61 00 	sts	0x0061, r24
}
     e92:	08 95       	ret

00000e94 <GetKey>:
	{
		PORTB = PORTB ^ (1<<6);
	}
*/
	return 0; 
}
     e94:	80 e0       	ldi	r24, 0x00	; 0
     e96:	08 95       	ret

00000e98 <__divmodhi4>:
     e98:	97 fb       	bst	r25, 7
     e9a:	09 2e       	mov	r0, r25
     e9c:	07 26       	eor	r0, r23
     e9e:	0a d0       	rcall	.+20     	; 0xeb4 <__divmodhi4_neg1>
     ea0:	77 fd       	sbrc	r23, 7
     ea2:	04 d0       	rcall	.+8      	; 0xeac <__divmodhi4_neg2>
     ea4:	27 d0       	rcall	.+78     	; 0xef4 <__udivmodhi4>
     ea6:	06 d0       	rcall	.+12     	; 0xeb4 <__divmodhi4_neg1>
     ea8:	00 20       	and	r0, r0
     eaa:	1a f4       	brpl	.+6      	; 0xeb2 <__divmodhi4_exit>

00000eac <__divmodhi4_neg2>:
     eac:	70 95       	com	r23
     eae:	61 95       	neg	r22
     eb0:	7f 4f       	sbci	r23, 0xFF	; 255

00000eb2 <__divmodhi4_exit>:
     eb2:	08 95       	ret

00000eb4 <__divmodhi4_neg1>:
     eb4:	f6 f7       	brtc	.-4      	; 0xeb2 <__divmodhi4_exit>
     eb6:	90 95       	com	r25
     eb8:	81 95       	neg	r24
     eba:	9f 4f       	sbci	r25, 0xFF	; 255
     ebc:	08 95       	ret

00000ebe <__divmodsi4>:
     ebe:	97 fb       	bst	r25, 7
     ec0:	09 2e       	mov	r0, r25
     ec2:	05 26       	eor	r0, r21
     ec4:	0e d0       	rcall	.+28     	; 0xee2 <__divmodsi4_neg1>
     ec6:	57 fd       	sbrc	r21, 7
     ec8:	04 d0       	rcall	.+8      	; 0xed2 <__divmodsi4_neg2>
     eca:	28 d0       	rcall	.+80     	; 0xf1c <__udivmodsi4>
     ecc:	0a d0       	rcall	.+20     	; 0xee2 <__divmodsi4_neg1>
     ece:	00 1c       	adc	r0, r0
     ed0:	38 f4       	brcc	.+14     	; 0xee0 <__divmodsi4_exit>

00000ed2 <__divmodsi4_neg2>:
     ed2:	50 95       	com	r21
     ed4:	40 95       	com	r20
     ed6:	30 95       	com	r19
     ed8:	21 95       	neg	r18
     eda:	3f 4f       	sbci	r19, 0xFF	; 255
     edc:	4f 4f       	sbci	r20, 0xFF	; 255
     ede:	5f 4f       	sbci	r21, 0xFF	; 255

00000ee0 <__divmodsi4_exit>:
     ee0:	08 95       	ret

00000ee2 <__divmodsi4_neg1>:
     ee2:	f6 f7       	brtc	.-4      	; 0xee0 <__divmodsi4_exit>
     ee4:	90 95       	com	r25
     ee6:	80 95       	com	r24
     ee8:	70 95       	com	r23
     eea:	61 95       	neg	r22
     eec:	7f 4f       	sbci	r23, 0xFF	; 255
     eee:	8f 4f       	sbci	r24, 0xFF	; 255
     ef0:	9f 4f       	sbci	r25, 0xFF	; 255
     ef2:	08 95       	ret

00000ef4 <__udivmodhi4>:
     ef4:	aa 1b       	sub	r26, r26
     ef6:	bb 1b       	sub	r27, r27
     ef8:	51 e1       	ldi	r21, 0x11	; 17
     efa:	07 c0       	rjmp	.+14     	; 0xf0a <__udivmodhi4_ep>

00000efc <__udivmodhi4_loop>:
     efc:	aa 1f       	adc	r26, r26
     efe:	bb 1f       	adc	r27, r27
     f00:	a6 17       	cp	r26, r22
     f02:	b7 07       	cpc	r27, r23
     f04:	10 f0       	brcs	.+4      	; 0xf0a <__udivmodhi4_ep>
     f06:	a6 1b       	sub	r26, r22
     f08:	b7 0b       	sbc	r27, r23

00000f0a <__udivmodhi4_ep>:
     f0a:	88 1f       	adc	r24, r24
     f0c:	99 1f       	adc	r25, r25
     f0e:	5a 95       	dec	r21
     f10:	a9 f7       	brne	.-22     	; 0xefc <__udivmodhi4_loop>
     f12:	80 95       	com	r24
     f14:	90 95       	com	r25
     f16:	bc 01       	movw	r22, r24
     f18:	cd 01       	movw	r24, r26
     f1a:	08 95       	ret

00000f1c <__udivmodsi4>:
     f1c:	a1 e2       	ldi	r26, 0x21	; 33
     f1e:	1a 2e       	mov	r1, r26
     f20:	aa 1b       	sub	r26, r26
     f22:	bb 1b       	sub	r27, r27
     f24:	fd 01       	movw	r30, r26
     f26:	0d c0       	rjmp	.+26     	; 0xf42 <__udivmodsi4_ep>

00000f28 <__udivmodsi4_loop>:
     f28:	aa 1f       	adc	r26, r26
     f2a:	bb 1f       	adc	r27, r27
     f2c:	ee 1f       	adc	r30, r30
     f2e:	ff 1f       	adc	r31, r31
     f30:	a2 17       	cp	r26, r18
     f32:	b3 07       	cpc	r27, r19
     f34:	e4 07       	cpc	r30, r20
     f36:	f5 07       	cpc	r31, r21
     f38:	20 f0       	brcs	.+8      	; 0xf42 <__udivmodsi4_ep>
     f3a:	a2 1b       	sub	r26, r18
     f3c:	b3 0b       	sbc	r27, r19
     f3e:	e4 0b       	sbc	r30, r20
     f40:	f5 0b       	sbc	r31, r21

00000f42 <__udivmodsi4_ep>:
     f42:	66 1f       	adc	r22, r22
     f44:	77 1f       	adc	r23, r23
     f46:	88 1f       	adc	r24, r24
     f48:	99 1f       	adc	r25, r25
     f4a:	1a 94       	dec	r1
     f4c:	69 f7       	brne	.-38     	; 0xf28 <__udivmodsi4_loop>
     f4e:	60 95       	com	r22
     f50:	70 95       	com	r23
     f52:	80 95       	com	r24
     f54:	90 95       	com	r25
     f56:	9b 01       	movw	r18, r22
     f58:	ac 01       	movw	r20, r24
     f5a:	bd 01       	movw	r22, r26
     f5c:	cf 01       	movw	r24, r30
     f5e:	08 95       	ret

00000f60 <atoi>:
     f60:	fc 01       	movw	r30, r24
     f62:	88 27       	eor	r24, r24
     f64:	99 27       	eor	r25, r25
     f66:	e8 94       	clt
     f68:	21 91       	ld	r18, Z+
     f6a:	20 32       	cpi	r18, 0x20	; 32
     f6c:	e9 f3       	breq	.-6      	; 0xf68 <atoi+0x8>
     f6e:	29 30       	cpi	r18, 0x09	; 9
     f70:	10 f0       	brcs	.+4      	; 0xf76 <atoi+0x16>
     f72:	2e 30       	cpi	r18, 0x0E	; 14
     f74:	c8 f3       	brcs	.-14     	; 0xf68 <atoi+0x8>
     f76:	2b 32       	cpi	r18, 0x2B	; 43
     f78:	41 f0       	breq	.+16     	; 0xf8a <atoi+0x2a>
     f7a:	2d 32       	cpi	r18, 0x2D	; 45
     f7c:	39 f4       	brne	.+14     	; 0xf8c <atoi+0x2c>
     f7e:	68 94       	set
     f80:	04 c0       	rjmp	.+8      	; 0xf8a <atoi+0x2a>
     f82:	0e 94 ce 07 	call	0xf9c	; 0xf9c <__mulhi_const_10>
     f86:	82 0f       	add	r24, r18
     f88:	91 1d       	adc	r25, r1
     f8a:	21 91       	ld	r18, Z+
     f8c:	20 53       	subi	r18, 0x30	; 48
     f8e:	2a 30       	cpi	r18, 0x0A	; 10
     f90:	c0 f3       	brcs	.-16     	; 0xf82 <atoi+0x22>
     f92:	1e f4       	brtc	.+6      	; 0xf9a <atoi+0x3a>
     f94:	90 95       	com	r25
     f96:	81 95       	neg	r24
     f98:	9f 4f       	sbci	r25, 0xFF	; 255
     f9a:	08 95       	ret

00000f9c <__mulhi_const_10>:
     f9c:	7a e0       	ldi	r23, 0x0A	; 10
     f9e:	97 9f       	mul	r25, r23
     fa0:	90 2d       	mov	r25, r0
     fa2:	87 9f       	mul	r24, r23
     fa4:	80 2d       	mov	r24, r0
     fa6:	91 0d       	add	r25, r1
     fa8:	11 24       	eor	r1, r1
     faa:	08 95       	ret

00000fac <__eerd_block_m64>:
     fac:	dc 01       	movw	r26, r24
     fae:	cb 01       	movw	r24, r22

00000fb0 <__eerd_blraw_m64>:
     fb0:	fc 01       	movw	r30, r24
     fb2:	e1 99       	sbic	0x1c, 1	; 28
     fb4:	fe cf       	rjmp	.-4      	; 0xfb2 <__eerd_blraw_m64+0x2>
     fb6:	06 c0       	rjmp	.+12     	; 0xfc4 <__eerd_blraw_m64+0x14>
     fb8:	ff bb       	out	0x1f, r31	; 31
     fba:	ee bb       	out	0x1e, r30	; 30
     fbc:	e0 9a       	sbi	0x1c, 0	; 28
     fbe:	31 96       	adiw	r30, 0x01	; 1
     fc0:	0d b2       	in	r0, 0x1d	; 29
     fc2:	0d 92       	st	X+, r0
     fc4:	41 50       	subi	r20, 0x01	; 1
     fc6:	50 40       	sbci	r21, 0x00	; 0
     fc8:	b8 f7       	brcc	.-18     	; 0xfb8 <__eerd_blraw_m64+0x8>
     fca:	08 95       	ret

00000fcc <__eerd_dword_m64>:
     fcc:	a6 e1       	ldi	r26, 0x16	; 22
     fce:	b0 e0       	ldi	r27, 0x00	; 0
     fd0:	44 e0       	ldi	r20, 0x04	; 4
     fd2:	50 e0       	ldi	r21, 0x00	; 0
     fd4:	0c 94 d8 07 	jmp	0xfb0	; 0xfb0 <__eerd_blraw_m64>

00000fd8 <__eewr_block_m64>:
     fd8:	dc 01       	movw	r26, r24
     fda:	cb 01       	movw	r24, r22
     fdc:	03 c0       	rjmp	.+6      	; 0xfe4 <__eewr_block_m64+0xc>
     fde:	2d 91       	ld	r18, X+
     fe0:	0e 94 f7 07 	call	0xfee	; 0xfee <__eewr_r18_m64>
     fe4:	41 50       	subi	r20, 0x01	; 1
     fe6:	50 40       	sbci	r21, 0x00	; 0
     fe8:	d0 f7       	brcc	.-12     	; 0xfde <__eewr_block_m64+0x6>
     fea:	08 95       	ret

00000fec <__eewr_byte_m64>:
     fec:	26 2f       	mov	r18, r22

00000fee <__eewr_r18_m64>:
     fee:	e1 99       	sbic	0x1c, 1	; 28
     ff0:	fe cf       	rjmp	.-4      	; 0xfee <__eewr_r18_m64>
     ff2:	9f bb       	out	0x1f, r25	; 31
     ff4:	8e bb       	out	0x1e, r24	; 30
     ff6:	2d bb       	out	0x1d, r18	; 29
     ff8:	0f b6       	in	r0, 0x3f	; 63
     ffa:	f8 94       	cli
     ffc:	e2 9a       	sbi	0x1c, 2	; 28
     ffe:	e1 9a       	sbi	0x1c, 1	; 28
    1000:	0f be       	out	0x3f, r0	; 63
    1002:	01 96       	adiw	r24, 0x01	; 1
    1004:	08 95       	ret

00001006 <__eewr_dword_m64>:
    1006:	24 2f       	mov	r18, r20
    1008:	0e 94 f7 07 	call	0xfee	; 0xfee <__eewr_r18_m64>
    100c:	25 2f       	mov	r18, r21
    100e:	0e 94 f7 07 	call	0xfee	; 0xfee <__eewr_r18_m64>
    1012:	0c 94 0b 08 	jmp	0x1016	; 0x1016 <__eewr_word_m64>

00001016 <__eewr_word_m64>:
    1016:	0e 94 f6 07 	call	0xfec	; 0xfec <__eewr_byte_m64>
    101a:	27 2f       	mov	r18, r23
    101c:	0c 94 f7 07 	jmp	0xfee	; 0xfee <__eewr_r18_m64>

00001020 <_exit>:
    1020:	f8 94       	cli

00001022 <__stop_program>:
    1022:	ff cf       	rjmp	.-2      	; 0x1022 <__stop_program>
